SF:/home/nathan/Projects/valknut/src/api/config_types.rs
FN:72,_RINvMs_NtNtCs64AwlgGXCHI_10valknut_rs3api12config_typesNtB5_14AnalysisConfig13with_languageReEB9_
FN:114,_RINvMs_NtNtCs64AwlgGXCHI_10valknut_rs3api12config_typesNtB5_14AnalysisConfig15exclude_patternReEB9_
FN:120,_RINvMs_NtNtCs64AwlgGXCHI_10valknut_rs3api12config_typesNtB5_14AnalysisConfig15include_patternNtNtCs8Ty2CzGA6U3_5alloc6string6StringEB9_
FN:120,_RINvMs_NtNtCs64AwlgGXCHI_10valknut_rs3api12config_typesNtB5_14AnalysisConfig15include_patternReEB9_
FN:66,_RNvMs_NtNtCs64AwlgGXCHI_10valknut_rs3api12config_typesNtB4_14AnalysisConfig14with_languages
FN:108,_RNvMs_NtNtCs64AwlgGXCHI_10valknut_rs3api12config_typesNtB4_14AnalysisConfig14with_max_files
FN:126,_RNvMs_NtNtCs64AwlgGXCHI_10valknut_rs3api12config_typesNtB4_14AnalysisConfig17to_valknut_config
FN:90,_RNvMs_NtNtCs64AwlgGXCHI_10valknut_rs3api12config_typesNtB4_14AnalysisConfig17with_lsh_analysis
FN:84,_RNvMs_NtNtCs64AwlgGXCHI_10valknut_rs3api12config_typesNtB4_14AnalysisConfig19with_graph_analysis
FN:78,_RNvMs_NtNtCs64AwlgGXCHI_10valknut_rs3api12config_typesNtB4_14AnalysisConfig20with_scoring_enabled
FN:102,_RNvMs_NtNtCs64AwlgGXCHI_10valknut_rs3api12config_typesNtB4_14AnalysisConfig25with_confidence_threshold
FN:96,_RNvMs_NtNtCs64AwlgGXCHI_10valknut_rs3api12config_typesNtB4_14AnalysisConfig25with_refactoring_analysis
FN:61,_RNvMs_NtNtCs64AwlgGXCHI_10valknut_rs3api12config_typesNtB4_14AnalysisConfig3new
FN:39,_RNvXNtNtCs64AwlgGXCHI_10valknut_rs3api12config_typesNtB2_14AnalysisConfigNtNtCs66KPHxksi63_4core7default7Default7default
FN:312,_RNvNtNtNtCs64AwlgGXCHI_10valknut_rs3api12config_types5testss_18test_serialization
FN:191,_RNvNtNtNtCs64AwlgGXCHI_10valknut_rs3api12config_types5testss_18test_with_language
FN:183,_RNvNtNtNtCs64AwlgGXCHI_10valknut_rs3api12config_types5testss_19test_with_languages
FN:243,_RNvNtNtNtCs64AwlgGXCHI_10valknut_rs3api12config_types5testss_19test_with_max_files
FN:251,_RNvNtNtNtCs64AwlgGXCHI_10valknut_rs3api12config_types5testss_20test_exclude_pattern
FN:263,_RNvNtNtNtCs64AwlgGXCHI_10valknut_rs3api12config_types5testss_20test_include_pattern
FN:275,_RNvNtNtNtCs64AwlgGXCHI_10valknut_rs3api12config_types5testss_20test_method_chaining
FN:293,_RNvNtNtNtCs64AwlgGXCHI_10valknut_rs3api12config_types5testss_22test_to_valknut_config
FN:219,_RNvNtNtNtCs64AwlgGXCHI_10valknut_rs3api12config_types5testss_22test_with_lsh_analysis
FN:173,_RNvNtNtNtCs64AwlgGXCHI_10valknut_rs3api12config_types5testss_24test_analysis_config_new
FN:211,_RNvNtNtNtCs64AwlgGXCHI_10valknut_rs3api12config_types5testss_24test_with_graph_analysis
FN:336,_RNvNtNtNtCs64AwlgGXCHI_10valknut_rs3api12config_types5testss_25test_empty_languages_list
FN:203,_RNvNtNtNtCs64AwlgGXCHI_10valknut_rs3api12config_types5testss_25test_with_scoring_enabled
FN:155,_RNvNtNtNtCs64AwlgGXCHI_10valknut_rs3api12config_types5testss_28test_analysis_config_default
FN:344,_RNvNtNtNtCs64AwlgGXCHI_10valknut_rs3api12config_types5testss_30test_max_files_none_conversion
FN:352,_RNvNtNtNtCs64AwlgGXCHI_10valknut_rs3api12config_types5testss_30test_pattern_string_conversion
FN:235,_RNvNtNtNtCs64AwlgGXCHI_10valknut_rs3api12config_types5testss_30test_with_confidence_threshold
FN:227,_RNvNtNtNtCs64AwlgGXCHI_10valknut_rs3api12config_types5testss_30test_with_refactoring_analysis
FN:326,_RNvNtNtNtCs64AwlgGXCHI_10valknut_rs3api12config_types5testss_33test_builder_pattern_immutability
FNDA:3,_RINvMs_NtNtCs64AwlgGXCHI_10valknut_rs3api12config_typesNtB5_14AnalysisConfig13with_languageReEB9_
FNDA:5,_RINvMs_NtNtCs64AwlgGXCHI_10valknut_rs3api12config_typesNtB5_14AnalysisConfig15exclude_patternReEB9_
FNDA:1,_RINvMs_NtNtCs64AwlgGXCHI_10valknut_rs3api12config_typesNtB5_14AnalysisConfig15include_patternNtNtCs8Ty2CzGA6U3_5alloc6string6StringEB9_
FNDA:4,_RINvMs_NtNtCs64AwlgGXCHI_10valknut_rs3api12config_typesNtB5_14AnalysisConfig15include_patternReEB9_
FNDA:5,_RNvMs_NtNtCs64AwlgGXCHI_10valknut_rs3api12config_typesNtB4_14AnalysisConfig14with_languages
FNDA:4,_RNvMs_NtNtCs64AwlgGXCHI_10valknut_rs3api12config_typesNtB4_14AnalysisConfig14with_max_files
FNDA:18,_RNvMs_NtNtCs64AwlgGXCHI_10valknut_rs3api12config_typesNtB4_14AnalysisConfig17to_valknut_config
FNDA:3,_RNvMs_NtNtCs64AwlgGXCHI_10valknut_rs3api12config_typesNtB4_14AnalysisConfig17with_lsh_analysis
FNDA:1,_RNvMs_NtNtCs64AwlgGXCHI_10valknut_rs3api12config_typesNtB4_14AnalysisConfig19with_graph_analysis
FNDA:1,_RNvMs_NtNtCs64AwlgGXCHI_10valknut_rs3api12config_typesNtB4_14AnalysisConfig20with_scoring_enabled
FNDA:6,_RNvMs_NtNtCs64AwlgGXCHI_10valknut_rs3api12config_typesNtB4_14AnalysisConfig25with_confidence_threshold
FNDA:1,_RNvMs_NtNtCs64AwlgGXCHI_10valknut_rs3api12config_typesNtB4_14AnalysisConfig25with_refactoring_analysis
FNDA:18,_RNvMs_NtNtCs64AwlgGXCHI_10valknut_rs3api12config_typesNtB4_14AnalysisConfig3new
FNDA:36,_RNvXNtNtCs64AwlgGXCHI_10valknut_rs3api12config_typesNtB2_14AnalysisConfigNtNtCs66KPHxksi63_4core7default7Default7default
FNDA:1,_RNvNtNtNtCs64AwlgGXCHI_10valknut_rs3api12config_types5testss_18test_serialization
FNDA:1,_RNvNtNtNtCs64AwlgGXCHI_10valknut_rs3api12config_types5testss_18test_with_language
FNDA:1,_RNvNtNtNtCs64AwlgGXCHI_10valknut_rs3api12config_types5testss_19test_with_languages
FNDA:1,_RNvNtNtNtCs64AwlgGXCHI_10valknut_rs3api12config_types5testss_19test_with_max_files
FNDA:1,_RNvNtNtNtCs64AwlgGXCHI_10valknut_rs3api12config_types5testss_20test_exclude_pattern
FNDA:1,_RNvNtNtNtCs64AwlgGXCHI_10valknut_rs3api12config_types5testss_20test_include_pattern
FNDA:1,_RNvNtNtNtCs64AwlgGXCHI_10valknut_rs3api12config_types5testss_20test_method_chaining
FNDA:1,_RNvNtNtNtCs64AwlgGXCHI_10valknut_rs3api12config_types5testss_22test_to_valknut_config
FNDA:1,_RNvNtNtNtCs64AwlgGXCHI_10valknut_rs3api12config_types5testss_22test_with_lsh_analysis
FNDA:1,_RNvNtNtNtCs64AwlgGXCHI_10valknut_rs3api12config_types5testss_24test_analysis_config_new
FNDA:1,_RNvNtNtNtCs64AwlgGXCHI_10valknut_rs3api12config_types5testss_24test_with_graph_analysis
FNDA:1,_RNvNtNtNtCs64AwlgGXCHI_10valknut_rs3api12config_types5testss_25test_empty_languages_list
FNDA:1,_RNvNtNtNtCs64AwlgGXCHI_10valknut_rs3api12config_types5testss_25test_with_scoring_enabled
FNDA:1,_RNvNtNtNtCs64AwlgGXCHI_10valknut_rs3api12config_types5testss_28test_analysis_config_default
FNDA:1,_RNvNtNtNtCs64AwlgGXCHI_10valknut_rs3api12config_types5testss_30test_max_files_none_conversion
FNDA:1,_RNvNtNtNtCs64AwlgGXCHI_10valknut_rs3api12config_types5testss_30test_pattern_string_conversion
FNDA:1,_RNvNtNtNtCs64AwlgGXCHI_10valknut_rs3api12config_types5testss_30test_with_confidence_threshold
FNDA:1,_RNvNtNtNtCs64AwlgGXCHI_10valknut_rs3api12config_types5testss_30test_with_refactoring_analysis
FNDA:1,_RNvNtNtNtCs64AwlgGXCHI_10valknut_rs3api12config_types5testss_33test_builder_pattern_immutability
FNF:32
FNH:32
DA:39,36
DA:40,36
DA:41,36
DA:42,36
DA:43,36
DA:44,36
DA:45,36
DA:46,36
DA:47,36
DA:48,36
DA:49,36
DA:50,36
DA:51,36
DA:52,36
DA:53,36
DA:54,36
DA:55,36
DA:56,36
DA:61,18
DA:62,18
DA:63,18
DA:66,5
DA:67,5
DA:68,5
DA:69,5
DA:72,3
DA:73,3
DA:74,3
DA:75,3
DA:78,1
DA:79,1
DA:80,1
DA:81,1
DA:84,1
DA:85,1
DA:86,1
DA:87,1
DA:90,3
DA:91,3
DA:92,3
DA:93,3
DA:96,1
DA:97,1
DA:98,1
DA:99,1
DA:102,6
DA:103,6
DA:104,6
DA:105,6
DA:108,4
DA:109,4
DA:110,4
DA:111,4
DA:114,5
DA:115,5
DA:116,5
DA:117,5
DA:120,5
DA:121,5
DA:122,5
DA:123,5
DA:126,18
DA:127,18
DA:130,18
DA:131,18
DA:132,18
DA:133,18
DA:134,18
DA:135,18
DA:136,18
DA:137,18
DA:140,70
DA:141,52
DA:142,51
DA:143,51
DA:146,18
DA:147,18
DA:155,1
DA:156,1
DA:158,1
DA:159,1
DA:160,1
DA:161,1
DA:162,1
DA:163,1
DA:164,1
DA:165,1
DA:166,1
DA:167,1
DA:168,1
DA:169,1
DA:170,1
DA:173,1
DA:174,1
DA:175,1
DA:177,1
DA:178,1
DA:179,1
DA:180,1
DA:183,1
DA:184,1
DA:185,1
DA:187,1
DA:188,1
DA:191,1
DA:192,1
DA:193,1
DA:194,1
DA:196,1
DA:197,1
DA:199,1
DA:200,1
DA:203,1
DA:204,1
DA:205,1
DA:207,1
DA:208,1
DA:211,1
DA:212,1
DA:213,1
DA:215,1
DA:216,1
DA:219,1
DA:220,1
DA:221,1
DA:223,1
DA:224,1
DA:227,1
DA:228,1
DA:229,1
DA:231,1
DA:232,1
DA:235,1
DA:236,1
DA:237,1
DA:239,1
DA:240,1
DA:243,1
DA:244,1
DA:245,1
DA:247,1
DA:248,1
DA:251,1
DA:252,1
DA:253,1
DA:254,1
DA:256,1
DA:257,1
DA:259,1
DA:260,1
DA:263,1
DA:264,1
DA:265,1
DA:266,1
DA:268,1
DA:269,1
DA:271,1
DA:272,1
DA:275,1
DA:276,1
DA:277,1
DA:278,1
DA:279,1
DA:280,1
DA:281,1
DA:282,1
DA:284,1
DA:285,1
DA:286,1
DA:287,1
DA:288,1
DA:289,1
DA:290,1
DA:293,1
DA:294,1
DA:295,1
DA:296,1
DA:297,1
DA:298,1
DA:299,1
DA:300,1
DA:302,1
DA:304,1
DA:305,1
DA:306,1
DA:307,1
DA:308,1
DA:309,1
DA:312,1
DA:313,1
DA:314,1
DA:315,1
DA:318,1
DA:319,1
DA:321,1
DA:322,1
DA:323,1
DA:326,1
DA:327,1
DA:328,1
DA:331,1
DA:332,1
DA:333,1
DA:336,1
DA:337,1
DA:338,1
DA:340,1
DA:341,1
DA:344,1
DA:345,1
DA:346,1
DA:348,1
DA:349,1
DA:352,1
DA:353,1
DA:354,1
DA:355,1
DA:357,1
DA:358,1
DA:359,1
BRF:0
BRH:0
LF:220
LH:220
end_of_record
SF:/home/nathan/Projects/valknut/src/api/engine.rs
FN:543,_RNvNtNtNtCs64AwlgGXCHI_10valknut_rs3api6engine5testss_13test_is_ready
FN:401,_RNvNtNtNtCs64AwlgGXCHI_10valknut_rs3api6engine5testss_17test_health_check
FN:531,_RNvNtNtNtCs64AwlgGXCHI_10valknut_rs3api6engine5testss_18test_config_access
FN:417,_RNvNtNtNtCs64AwlgGXCHI_10valknut_rs3api6engine5testss_18test_engine_status
FN:377,_RNvNtNtNtCs64AwlgGXCHI_10valknut_rs3api6engine5testss_20test_analyze_vectors
FN:335,_RNvNtNtNtCs64AwlgGXCHI_10valknut_rs3api6engine5testss_20test_engine_creation
FN:637,_RNvNtNtNtCs64AwlgGXCHI_10valknut_rs3api6engine5testss_23test_health_check_debug
FN:589,_RNvNtNtNtCs64AwlgGXCHI_10valknut_rs3api6engine5testss_24test_engine_status_debug
FN:500,_RNvNtNtNtCs64AwlgGXCHI_10valknut_rs3api6engine5testss_26test_analyze_vectors_empty
FN:360,_RNvNtNtNtCs64AwlgGXCHI_10valknut_rs3api6engine5testss_28test_analyze_empty_directory
FN:554,_RNvNtNtNtCs64AwlgGXCHI_10valknut_rs3api6engine5testss_28test_get_supported_languages
FN:651,_RNvNtNtNtCs64AwlgGXCHI_10valknut_rs3api6engine5testss_28test_health_check_no_message
FN:447,_RNvNtNtNtCs64AwlgGXCHI_10valknut_rs3api6engine5testss_29test_analyze_files_empty_list
FN:607,_RNvNtNtNtCs64AwlgGXCHI_10valknut_rs3api6engine5testss_30test_health_check_result_debug
FN:427,_RNvNtNtNtCs64AwlgGXCHI_10valknut_rs3api6engine5testss_31test_analyze_file_not_directory
FN:565,_RNvNtNtNtCs64AwlgGXCHI_10valknut_rs3api6engine5testss_31test_health_check_comprehensive
FN:628,_RNvNtNtNtCs64AwlgGXCHI_10valknut_rs3api6engine5testss_33test_health_check_status_equality
FN:345,_RNvNtNtNtCs64AwlgGXCHI_10valknut_rs3api6engine5testss_34test_analyze_nonexistent_directory
FN:483,_RNvNtNtNtCs64AwlgGXCHI_10valknut_rs3api6engine5testss_38test_analyze_files_no_parent_directory
FN:468,_RNvNtNtNtCs64AwlgGXCHI_10valknut_rs3api6engine5testss_40test_analyze_files_with_parent_directory
FN:513,_RNvNtNtNtCs64AwlgGXCHI_10valknut_rs3api6engine5testss_43test_analyze_vectors_with_multiple_features
FN:411,_RNCNCNvNtNtNtCs64AwlgGXCHI_10valknut_rs3api6engine5testss_17test_health_check00Bb_
FN:575,_RNCNCNvNtNtNtCs64AwlgGXCHI_10valknut_rs3api6engine5testss_31test_health_check_comprehensive00Bb_
FN:543,_RNCNvNtNtNtCs64AwlgGXCHI_10valknut_rs3api6engine5testss_13test_is_ready0B9_
FN:401,_RNCNvNtNtNtCs64AwlgGXCHI_10valknut_rs3api6engine5testss_17test_health_check0B9_
FN:531,_RNCNvNtNtNtCs64AwlgGXCHI_10valknut_rs3api6engine5testss_18test_config_access0B9_
FN:417,_RNCNvNtNtNtCs64AwlgGXCHI_10valknut_rs3api6engine5testss_18test_engine_status0B9_
FN:377,_RNCNvNtNtNtCs64AwlgGXCHI_10valknut_rs3api6engine5testss_20test_analyze_vectors0B9_
FN:335,_RNCNvNtNtNtCs64AwlgGXCHI_10valknut_rs3api6engine5testss_20test_engine_creation0B9_
FN:500,_RNCNvNtNtNtCs64AwlgGXCHI_10valknut_rs3api6engine5testss_26test_analyze_vectors_empty0B9_
FN:360,_RNCNvNtNtNtCs64AwlgGXCHI_10valknut_rs3api6engine5testss_28test_analyze_empty_directory0B9_
FN:554,_RNCNvNtNtNtCs64AwlgGXCHI_10valknut_rs3api6engine5testss_28test_get_supported_languages0B9_
FN:447,_RNCNvNtNtNtCs64AwlgGXCHI_10valknut_rs3api6engine5testss_29test_analyze_files_empty_list0B9_
FN:427,_RNCNvNtNtNtCs64AwlgGXCHI_10valknut_rs3api6engine5testss_31test_analyze_file_not_directory0B9_
FN:565,_RNCNvNtNtNtCs64AwlgGXCHI_10valknut_rs3api6engine5testss_31test_health_check_comprehensive0B9_
FN:345,_RNCNvNtNtNtCs64AwlgGXCHI_10valknut_rs3api6engine5testss_34test_analyze_nonexistent_directory0B9_
FN:483,_RNCNvNtNtNtCs64AwlgGXCHI_10valknut_rs3api6engine5testss_38test_analyze_files_no_parent_directory0B9_
FN:468,_RNCNvNtNtNtCs64AwlgGXCHI_10valknut_rs3api6engine5testss_40test_analyze_files_with_parent_directory0B9_
FN:513,_RNCNvNtNtNtCs64AwlgGXCHI_10valknut_rs3api6engine5testss_43test_analyze_vectors_with_multiple_features0B9_
FN:165,_RNvMNtNtCs64AwlgGXCHI_10valknut_rs3api6engineNtB2_13ValknutEngine10get_status
FN:193,_RNvMNtNtCs64AwlgGXCHI_10valknut_rs3api6engineNtB2_13ValknutEngine12health_check
FN:135,_RNvMNtNtCs64AwlgGXCHI_10valknut_rs3api6engineNtB2_13ValknutEngine15analyze_vectors
FN:178,_RNvMNtNtCs64AwlgGXCHI_10valknut_rs3api6engineNtB2_13ValknutEngine23get_supported_languages
FN:26,_RNvMNtNtCs64AwlgGXCHI_10valknut_rs3api6engineNtB2_13ValknutEngine3new
FN:160,_RNvMNtNtCs64AwlgGXCHI_10valknut_rs3api6engineNtB2_13ValknutEngine6config
FN:188,_RNvMNtNtCs64AwlgGXCHI_10valknut_rs3api6engineNtB2_13ValknutEngine8is_ready
FN:89,_RINvMNtNtCs64AwlgGXCHI_10valknut_rs3api6engineNtB3_13ValknutEngine13analyze_filesRNtNtCsiKSG5X70Gj7_3std4path4PathEB7_
FN:89,_RINvMNtNtCs64AwlgGXCHI_10valknut_rs3api6engineNtB3_13ValknutEngine13analyze_filesReEB7_
FN:55,_RINvMNtNtCs64AwlgGXCHI_10valknut_rs3api6engineNtB3_13ValknutEngine17analyze_directoryRNtNtCsiKSG5X70Gj7_3std4path4PathEB7_
FN:55,_RINvMNtNtCs64AwlgGXCHI_10valknut_rs3api6engineNtB3_13ValknutEngine17analyze_directoryRNtNtCsiKSG5X70Gj7_3std4path7PathBufEB7_
FN:55,_RINvMNtNtCs64AwlgGXCHI_10valknut_rs3api6engineNtB3_13ValknutEngine17analyze_directoryReEB7_
FN:89,_RNCINvMNtNtCs64AwlgGXCHI_10valknut_rs3api6engineNtB5_13ValknutEngine13analyze_filesRNtNtCsiKSG5X70Gj7_3std4path4PathE0B9_
FN:89,_RNCINvMNtNtCs64AwlgGXCHI_10valknut_rs3api6engineNtB5_13ValknutEngine13analyze_filesReE0B9_
FN:55,_RNCINvMNtNtCs64AwlgGXCHI_10valknut_rs3api6engineNtB5_13ValknutEngine17analyze_directoryRNtNtCsiKSG5X70Gj7_3std4path4PathE0B9_
FN:55,_RNCINvMNtNtCs64AwlgGXCHI_10valknut_rs3api6engineNtB5_13ValknutEngine17analyze_directoryRNtNtCsiKSG5X70Gj7_3std4path7PathBufE0B9_
FN:55,_RNCINvMNtNtCs64AwlgGXCHI_10valknut_rs3api6engineNtB5_13ValknutEngine17analyze_directoryReE0B9_
FN:193,_RNCNvMNtNtCs64AwlgGXCHI_10valknut_rs3api6engineNtB4_13ValknutEngine12health_check0B8_
FN:135,_RNCNvMNtNtCs64AwlgGXCHI_10valknut_rs3api6engineNtB4_13ValknutEngine15analyze_vectors0B8_
FN:183,_RNCNvMNtNtCs64AwlgGXCHI_10valknut_rs3api6engineNtB4_13ValknutEngine23get_supported_languagess_0B8_
FN:26,_RNCNvMNtNtCs64AwlgGXCHI_10valknut_rs3api6engineNtB4_13ValknutEngine3new0B8_
FNDA:1,_RNvNtNtNtCs64AwlgGXCHI_10valknut_rs3api6engine5testss_13test_is_ready
FNDA:1,_RNvNtNtNtCs64AwlgGXCHI_10valknut_rs3api6engine5testss_17test_health_check
FNDA:1,_RNvNtNtNtCs64AwlgGXCHI_10valknut_rs3api6engine5testss_18test_config_access
FNDA:1,_RNvNtNtNtCs64AwlgGXCHI_10valknut_rs3api6engine5testss_18test_engine_status
FNDA:1,_RNvNtNtNtCs64AwlgGXCHI_10valknut_rs3api6engine5testss_20test_analyze_vectors
FNDA:1,_RNvNtNtNtCs64AwlgGXCHI_10valknut_rs3api6engine5testss_20test_engine_creation
FNDA:1,_RNvNtNtNtCs64AwlgGXCHI_10valknut_rs3api6engine5testss_23test_health_check_debug
FNDA:1,_RNvNtNtNtCs64AwlgGXCHI_10valknut_rs3api6engine5testss_24test_engine_status_debug
FNDA:1,_RNvNtNtNtCs64AwlgGXCHI_10valknut_rs3api6engine5testss_26test_analyze_vectors_empty
FNDA:1,_RNvNtNtNtCs64AwlgGXCHI_10valknut_rs3api6engine5testss_28test_analyze_empty_directory
FNDA:1,_RNvNtNtNtCs64AwlgGXCHI_10valknut_rs3api6engine5testss_28test_get_supported_languages
FNDA:1,_RNvNtNtNtCs64AwlgGXCHI_10valknut_rs3api6engine5testss_28test_health_check_no_message
FNDA:1,_RNvNtNtNtCs64AwlgGXCHI_10valknut_rs3api6engine5testss_29test_analyze_files_empty_list
FNDA:1,_RNvNtNtNtCs64AwlgGXCHI_10valknut_rs3api6engine5testss_30test_health_check_result_debug
FNDA:1,_RNvNtNtNtCs64AwlgGXCHI_10valknut_rs3api6engine5testss_31test_analyze_file_not_directory
FNDA:1,_RNvNtNtNtCs64AwlgGXCHI_10valknut_rs3api6engine5testss_31test_health_check_comprehensive
FNDA:1,_RNvNtNtNtCs64AwlgGXCHI_10valknut_rs3api6engine5testss_33test_health_check_status_equality
FNDA:1,_RNvNtNtNtCs64AwlgGXCHI_10valknut_rs3api6engine5testss_34test_analyze_nonexistent_directory
FNDA:1,_RNvNtNtNtCs64AwlgGXCHI_10valknut_rs3api6engine5testss_38test_analyze_files_no_parent_directory
FNDA:1,_RNvNtNtNtCs64AwlgGXCHI_10valknut_rs3api6engine5testss_40test_analyze_files_with_parent_directory
FNDA:1,_RNvNtNtNtCs64AwlgGXCHI_10valknut_rs3api6engine5testss_43test_analyze_vectors_with_multiple_features
FNDA:1,_RNCNCNvNtNtNtCs64AwlgGXCHI_10valknut_rs3api6engine5testss_17test_health_check00Bb_
FNDA:4,_RNCNCNvNtNtNtCs64AwlgGXCHI_10valknut_rs3api6engine5testss_31test_health_check_comprehensive00Bb_
FNDA:1,_RNCNvNtNtNtCs64AwlgGXCHI_10valknut_rs3api6engine5testss_13test_is_ready0B9_
FNDA:1,_RNCNvNtNtNtCs64AwlgGXCHI_10valknut_rs3api6engine5testss_17test_health_check0B9_
FNDA:1,_RNCNvNtNtNtCs64AwlgGXCHI_10valknut_rs3api6engine5testss_18test_config_access0B9_
FNDA:1,_RNCNvNtNtNtCs64AwlgGXCHI_10valknut_rs3api6engine5testss_18test_engine_status0B9_
FNDA:1,_RNCNvNtNtNtCs64AwlgGXCHI_10valknut_rs3api6engine5testss_20test_analyze_vectors0B9_
FNDA:1,_RNCNvNtNtNtCs64AwlgGXCHI_10valknut_rs3api6engine5testss_20test_engine_creation0B9_
FNDA:1,_RNCNvNtNtNtCs64AwlgGXCHI_10valknut_rs3api6engine5testss_26test_analyze_vectors_empty0B9_
FNDA:1,_RNCNvNtNtNtCs64AwlgGXCHI_10valknut_rs3api6engine5testss_28test_analyze_empty_directory0B9_
FNDA:1,_RNCNvNtNtNtCs64AwlgGXCHI_10valknut_rs3api6engine5testss_28test_get_supported_languages0B9_
FNDA:1,_RNCNvNtNtNtCs64AwlgGXCHI_10valknut_rs3api6engine5testss_29test_analyze_files_empty_list0B9_
FNDA:1,_RNCNvNtNtNtCs64AwlgGXCHI_10valknut_rs3api6engine5testss_31test_analyze_file_not_directory0B9_
FNDA:1,_RNCNvNtNtNtCs64AwlgGXCHI_10valknut_rs3api6engine5testss_31test_health_check_comprehensive0B9_
FNDA:1,_RNCNvNtNtNtCs64AwlgGXCHI_10valknut_rs3api6engine5testss_34test_analyze_nonexistent_directory0B9_
FNDA:1,_RNCNvNtNtNtCs64AwlgGXCHI_10valknut_rs3api6engine5testss_38test_analyze_files_no_parent_directory0B9_
FNDA:1,_RNCNvNtNtNtCs64AwlgGXCHI_10valknut_rs3api6engine5testss_40test_analyze_files_with_parent_directory0B9_
FNDA:1,_RNCNvNtNtNtCs64AwlgGXCHI_10valknut_rs3api6engine5testss_43test_analyze_vectors_with_multiple_features0B9_
FNDA:1,_RNvMNtNtCs64AwlgGXCHI_10valknut_rs3api6engineNtB2_13ValknutEngine10get_status
FNDA:2,_RNvMNtNtCs64AwlgGXCHI_10valknut_rs3api6engineNtB2_13ValknutEngine12health_check
FNDA:3,_RNvMNtNtCs64AwlgGXCHI_10valknut_rs3api6engineNtB2_13ValknutEngine15analyze_vectors
FNDA:5,_RNvMNtNtCs64AwlgGXCHI_10valknut_rs3api6engineNtB2_13ValknutEngine23get_supported_languages
FNDA:16,_RNvMNtNtCs64AwlgGXCHI_10valknut_rs3api6engineNtB2_13ValknutEngine3new
FNDA:1,_RNvMNtNtCs64AwlgGXCHI_10valknut_rs3api6engineNtB2_13ValknutEngine6config
FNDA:1,_RNvMNtNtCs64AwlgGXCHI_10valknut_rs3api6engineNtB2_13ValknutEngine8is_ready
FNDA:2,_RINvMNtNtCs64AwlgGXCHI_10valknut_rs3api6engineNtB3_13ValknutEngine13analyze_filesRNtNtCsiKSG5X70Gj7_3std4path4PathEB7_
FNDA:1,_RINvMNtNtCs64AwlgGXCHI_10valknut_rs3api6engineNtB3_13ValknutEngine13analyze_filesReEB7_
FNDA:2,_RINvMNtNtCs64AwlgGXCHI_10valknut_rs3api6engineNtB3_13ValknutEngine17analyze_directoryRNtNtCsiKSG5X70Gj7_3std4path4PathEB7_
FNDA:1,_RINvMNtNtCs64AwlgGXCHI_10valknut_rs3api6engineNtB3_13ValknutEngine17analyze_directoryRNtNtCsiKSG5X70Gj7_3std4path7PathBufEB7_
FNDA:1,_RINvMNtNtCs64AwlgGXCHI_10valknut_rs3api6engineNtB3_13ValknutEngine17analyze_directoryReEB7_
FNDA:2,_RNCINvMNtNtCs64AwlgGXCHI_10valknut_rs3api6engineNtB5_13ValknutEngine13analyze_filesRNtNtCsiKSG5X70Gj7_3std4path4PathE0B9_
FNDA:1,_RNCINvMNtNtCs64AwlgGXCHI_10valknut_rs3api6engineNtB5_13ValknutEngine13analyze_filesReE0B9_
FNDA:2,_RNCINvMNtNtCs64AwlgGXCHI_10valknut_rs3api6engineNtB5_13ValknutEngine17analyze_directoryRNtNtCsiKSG5X70Gj7_3std4path4PathE0B9_
FNDA:1,_RNCINvMNtNtCs64AwlgGXCHI_10valknut_rs3api6engineNtB5_13ValknutEngine17analyze_directoryRNtNtCsiKSG5X70Gj7_3std4path7PathBufE0B9_
FNDA:1,_RNCINvMNtNtCs64AwlgGXCHI_10valknut_rs3api6engineNtB5_13ValknutEngine17analyze_directoryReE0B9_
FNDA:2,_RNCNvMNtNtCs64AwlgGXCHI_10valknut_rs3api6engineNtB4_13ValknutEngine12health_check0B8_
FNDA:3,_RNCNvMNtNtCs64AwlgGXCHI_10valknut_rs3api6engineNtB4_13ValknutEngine15analyze_vectors0B8_
FNDA:15,_RNCNvMNtNtCs64AwlgGXCHI_10valknut_rs3api6engineNtB4_13ValknutEngine23get_supported_languagess_0B8_
FNDA:16,_RNCNvMNtNtCs64AwlgGXCHI_10valknut_rs3api6engineNtB4_13ValknutEngine3new0B8_
FNF:54
FNH:54
DA:26,16
DA:27,16
DA:30,16
DA:33,16
DA:35,16
DA:36,16
DA:37,16
DA:46,16
DA:48,16
DA:49,16
DA:50,16
DA:51,16
DA:52,16
DA:55,4
DA:56,4
DA:57,4
DA:60,4
DA:61,1
DA:62,1
DA:63,1
DA:64,1
DA:65,3
DA:67,3
DA:68,1
DA:69,1
DA:70,1
DA:71,2
DA:74,2
DA:77,2
DA:79,2
DA:80,0
DA:81,0
DA:85,2
DA:86,4
DA:89,3
DA:90,3
DA:95,3
DA:96,1
DA:97,1
DA:98,1
DA:99,1
DA:100,1
DA:101,1
DA:102,1
DA:103,1
DA:104,1
DA:105,1
DA:106,1
DA:107,1
DA:108,1
DA:109,1
DA:110,1
DA:111,1
DA:112,1
DA:113,1
DA:114,1
DA:115,1
DA:116,1
DA:117,1
DA:118,1
DA:119,1
DA:120,1
DA:121,1
DA:122,1
DA:123,2
DA:126,2
DA:127,2
DA:128,1
DA:130,1
DA:132,3
DA:135,3
DA:136,3
DA:139,3
DA:141,0
DA:142,0
DA:143,3
DA:146,3
DA:149,3
DA:151,3
DA:152,0
DA:156,3
DA:157,3
DA:160,1
DA:161,1
DA:162,1
DA:165,1
DA:166,1
DA:168,1
DA:169,1
DA:170,1
DA:171,1
DA:172,1
DA:173,1
DA:174,1
DA:175,1
DA:178,5
DA:179,5
DA:180,5
DA:181,5
DA:182,5
DA:183,15
DA:184,5
DA:185,5
DA:188,1
DA:189,1
DA:190,1
DA:193,2
DA:194,2
DA:195,2
DA:198,2
DA:199,0
DA:200,0
DA:201,0
DA:202,0
DA:203,0
DA:204,0
DA:205,2
DA:206,2
DA:207,2
DA:208,2
DA:209,2
DA:210,2
DA:211,2
DA:214,2
DA:215,2
DA:216,2
DA:217,2
DA:218,2
DA:219,2
DA:220,2
DA:221,2
DA:222,0
DA:223,0
DA:224,0
DA:225,0
DA:226,0
DA:227,0
DA:228,0
DA:231,2
DA:232,2
DA:233,0
DA:234,0
DA:235,0
DA:236,0
DA:237,0
DA:238,2
DA:239,2
DA:240,2
DA:241,2
DA:242,2
DA:243,2
DA:244,2
DA:247,2
DA:248,2
DA:249,0
DA:250,0
DA:251,0
DA:252,0
DA:253,0
DA:254,2
DA:255,2
DA:256,2
DA:257,2
DA:258,2
DA:259,2
DA:260,2
DA:262,2
DA:263,2
DA:264,2
DA:265,2
DA:266,2
DA:267,2
DA:335,1
DA:336,1
DA:337,1
DA:338,1
DA:340,1
DA:341,1
DA:342,1
DA:345,1
DA:346,1
DA:347,1
DA:349,1
DA:350,1
DA:352,1
DA:353,1
DA:354,1
DA:355,1
DA:356,1
DA:357,1
DA:360,1
DA:361,1
DA:362,1
DA:365,1
DA:367,1
DA:368,1
DA:370,1
DA:371,1
DA:373,1
DA:374,1
DA:377,1
DA:378,1
DA:379,1
DA:382,1
DA:383,1
DA:384,1
DA:387,1
DA:388,1
DA:390,1
DA:391,1
DA:393,1
DA:394,1
DA:397,1
DA:398,1
DA:401,1
DA:402,1
DA:403,1
DA:405,1
DA:408,1
DA:411,1
DA:412,1
DA:413,1
DA:414,1
DA:417,1
DA:418,1
DA:419,1
DA:421,1
DA:422,1
DA:423,1
DA:424,1
DA:427,1
DA:428,1
DA:429,1
DA:432,1
DA:433,1
DA:434,1
DA:436,1
DA:437,1
DA:439,1
DA:440,1
DA:441,1
DA:442,1
DA:443,1
DA:444,1
DA:447,1
DA:448,1
DA:449,1
DA:451,1
DA:452,1
DA:453,1
DA:455,1
DA:456,1
DA:457,1
DA:458,1
DA:459,1
DA:460,1
DA:461,1
DA:462,1
DA:463,1
DA:464,1
DA:465,1
DA:468,1
DA:469,1
DA:470,1
DA:473,1
DA:474,1
DA:475,1
DA:477,1
DA:478,1
DA:479,1
DA:480,1
DA:483,1
DA:484,1
DA:485,1
DA:488,1
DA:489,1
DA:490,1
DA:492,1
DA:493,1
DA:494,1
DA:495,1
DA:496,1
DA:497,1
DA:500,1
DA:501,1
DA:502,1
DA:504,1
DA:505,1
DA:506,1
DA:508,1
DA:509,1
DA:510,1
DA:513,1
DA:514,1
DA:515,1
DA:517,1
DA:518,1
DA:519,1
DA:520,1
DA:522,1
DA:523,1
DA:525,1
DA:527,1
DA:528,1
DA:531,1
DA:532,1
DA:533,1
DA:534,1
DA:535,1
DA:537,1
DA:538,1
DA:539,1
DA:540,1
DA:543,1
DA:544,1
DA:545,1
DA:548,1
DA:550,1
DA:551,1
DA:554,1
DA:555,1
DA:556,1
DA:557,1
DA:559,1
DA:561,1
DA:562,1
DA:565,1
DA:566,1
DA:567,1
DA:569,1
DA:572,1
DA:575,4
DA:576,1
DA:577,1
DA:578,1
DA:579,1
DA:582,1
DA:583,1
DA:584,1
DA:585,1
DA:586,1
DA:589,1
DA:590,1
DA:591,1
DA:592,1
DA:593,1
DA:594,1
DA:595,1
DA:596,1
DA:598,1
DA:599,1
DA:600,1
DA:601,1
DA:602,1
DA:603,1
DA:604,1
DA:607,1
DA:608,1
DA:609,1
DA:610,1
DA:611,1
DA:612,1
DA:613,1
DA:614,1
DA:615,1
DA:616,1
DA:617,1
DA:618,1
DA:620,1
DA:621,1
DA:622,1
DA:623,1
DA:624,1
DA:625,1
DA:628,1
DA:629,1
DA:630,1
DA:631,1
DA:632,1
DA:633,1
DA:634,1
DA:637,1
DA:638,1
DA:639,1
DA:640,1
DA:641,1
DA:642,1
DA:644,1
DA:645,1
DA:646,1
DA:647,1
DA:648,1
DA:651,1
DA:652,1
DA:653,1
DA:654,1
DA:655,1
DA:656,1
DA:658,1
DA:659,1
DA:660,1
DA:661,1
DA:662,1
BRF:0
BRH:0
LF:452
LH:409
end_of_record
SF:/home/nathan/Projects/valknut/src/api/results.rs
FN:291,_RNvMNtNtCs64AwlgGXCHI_10valknut_rs3api7resultsNtB2_15AnalysisResults10is_healthy
FN:296,_RNvMNtNtCs64AwlgGXCHI_10valknut_rs3api7resultsNtB2_15AnalysisResults10top_issues
FN:272,_RNvMNtNtCs64AwlgGXCHI_10valknut_rs3api7resultsNtB2_15AnalysisResults14files_analyzed
FN:277,_RNvMNtNtCs64AwlgGXCHI_10valknut_rs3api7resultsNtB2_15AnalysisResults19critical_candidates
FN:179,_RNvMNtNtCs64AwlgGXCHI_10valknut_rs3api7resultsNtB2_15AnalysisResults21from_pipeline_results
FN:284,_RNvMNtNtCs64AwlgGXCHI_10valknut_rs3api7resultsNtB2_15AnalysisResults24high_priority_candidates
FN:257,_RNvMNtNtCs64AwlgGXCHI_10valknut_rs3api7resultsNtB2_15AnalysisResults27calculate_code_health_score
FN:313,_RNvMs_NtNtCs64AwlgGXCHI_10valknut_rs3api7resultsNtB4_20RefactoringCandidate19from_scoring_result
FN:431,_RNvMs_NtNtCs64AwlgGXCHI_10valknut_rs3api7resultsNtB4_20RefactoringCandidate20generate_suggestions
FN:411,_RNvMs_NtNtCs64AwlgGXCHI_10valknut_rs3api7resultsNtB4_20RefactoringCandidate26generate_issue_description
FN:401,_RNvMs_NtNtCs64AwlgGXCHI_10valknut_rs3api7resultsNtB4_20RefactoringCandidate27feature_belongs_to_category
FN:661,_RNvNtNtNtCs64AwlgGXCHI_10valknut_rs3api7results5testss_24test_memory_stats_fields
FN:975,_RNvNtNtNtCs64AwlgGXCHI_10valknut_rs3api7results5testss_25test_generate_suggestions
FN:486,_RNvNtNtNtCs64AwlgGXCHI_10valknut_rs3api7results5testss_28test_code_health_calculation
FN:526,_RNvNtNtNtCs64AwlgGXCHI_10valknut_rs3api7results5testss_29test_analysis_summary_default
FN:956,_RNvNtNtNtCs64AwlgGXCHI_10valknut_rs3api7results5testss_31test_generate_issue_description
FN:570,_RNvNtNtNtCs64AwlgGXCHI_10valknut_rs3api7results5testss_31test_refactoring_issue_creation
FN:768,_RNvNtNtNtCs64AwlgGXCHI_10valknut_rs3api7results5testss_32test_analysis_results_is_healthy
FN:829,_RNvNtNtNtCs64AwlgGXCHI_10valknut_rs3api7results5testss_32test_analysis_results_top_issues
FN:946,_RNvNtNtNtCs64AwlgGXCHI_10valknut_rs3api7results5testss_32test_feature_belongs_to_category
FN:625,_RNvNtNtNtCs64AwlgGXCHI_10valknut_rs3api7results5testss_33test_analysis_statistics_creation
FN:547,_RNvNtNtNtCs64AwlgGXCHI_10valknut_rs3api7results5testss_33test_refactoring_candidate_fields
FN:610,_RNvNtNtNtCs64AwlgGXCHI_10valknut_rs3api7results5testss_34test_feature_contribution_creation
FN:1024,_RNvNtNtNtCs64AwlgGXCHI_10valknut_rs3api7results5testss_34test_serialization_deserialization
FN:503,_RNvNtNtNtCs64AwlgGXCHI_10valknut_rs3api7results5testss_35test_refactoring_candidate_creation
FN:674,_RNvNtNtNtCs64AwlgGXCHI_10valknut_rs3api7results5testss_36test_analysis_results_files_analyzed
FN:593,_RNvNtNtNtCs64AwlgGXCHI_10valknut_rs3api7results5testss_36test_refactoring_suggestion_creation
FN:708,_RNvNtNtNtCs64AwlgGXCHI_10valknut_rs3api7results5testss_41test_analysis_results_critical_candidates
FN:915,_RNvNtNtNtCs64AwlgGXCHI_10valknut_rs3api7results5testss_43test_calculate_code_health_score_edge_cases
FN:358,_RNCNCNvMs_NtNtCs64AwlgGXCHI_10valknut_rs3api7resultsNtB8_20RefactoringCandidate19from_scoring_results4_00Bc_
FN:361,_RNCNCNvMs_NtNtCs64AwlgGXCHI_10valknut_rs3api7resultsNtB8_20RefactoringCandidate19from_scoring_results4_0s_0Bc_
FN:306,_RNCNvMNtNtCs64AwlgGXCHI_10valknut_rs3api7resultsNtB4_15AnalysisResults10top_issues0B8_
FN:280,_RNCNvMNtNtCs64AwlgGXCHI_10valknut_rs3api7resultsNtB4_15AnalysisResults19critical_candidates0B8_
FN:187,_RNCNvMNtNtCs64AwlgGXCHI_10valknut_rs3api7resultsNtB4_15AnalysisResults21from_pipeline_results0B8_
FN:202,_RNCNvMNtNtCs64AwlgGXCHI_10valknut_rs3api7resultsNtB4_15AnalysisResults21from_pipeline_resultss0_0B8_
FN:208,_RNCNvMNtNtCs64AwlgGXCHI_10valknut_rs3api7resultsNtB4_15AnalysisResults21from_pipeline_resultss1_0B8_
FN:244,_RNCNvMNtNtCs64AwlgGXCHI_10valknut_rs3api7resultsNtB4_15AnalysisResults21from_pipeline_resultss2_0B8_
FN:188,_RNCNvMNtNtCs64AwlgGXCHI_10valknut_rs3api7resultsNtB4_15AnalysisResults21from_pipeline_resultss_0B8_
FN:287,_RNCNvMNtNtCs64AwlgGXCHI_10valknut_rs3api7resultsNtB4_15AnalysisResults24high_priority_candidates0B8_
FN:317,_RNCNvMs_NtNtCs64AwlgGXCHI_10valknut_rs3api7resultsNtB6_20RefactoringCandidate19from_scoring_result0Ba_
FN:328,_RNCNvMs_NtNtCs64AwlgGXCHI_10valknut_rs3api7resultsNtB6_20RefactoringCandidate19from_scoring_results0_0Ba_
FN:333,_RNCNvMs_NtNtCs64AwlgGXCHI_10valknut_rs3api7resultsNtB6_20RefactoringCandidate19from_scoring_results1_0Ba_
FN:334,_RNCNvMs_NtNtCs64AwlgGXCHI_10valknut_rs3api7resultsNtB6_20RefactoringCandidate19from_scoring_results2_0Ba_
FN:355,_RNCNvMs_NtNtCs64AwlgGXCHI_10valknut_rs3api7resultsNtB6_20RefactoringCandidate19from_scoring_results3_0Ba_
FN:356,_RNCNvMs_NtNtCs64AwlgGXCHI_10valknut_rs3api7resultsNtB6_20RefactoringCandidate19from_scoring_results4_0Ba_
FN:323,_RNCNvMs_NtNtCs64AwlgGXCHI_10valknut_rs3api7resultsNtB6_20RefactoringCandidate19from_scoring_results_0Ba_
FN:471,_RNCNvMs_NtNtCs64AwlgGXCHI_10valknut_rs3api7resultsNtB6_20RefactoringCandidate20generate_suggestions0Ba_
FN:472,_RNCNvMs_NtNtCs64AwlgGXCHI_10valknut_rs3api7resultsNtB6_20RefactoringCandidate20generate_suggestionss_0Ba_
FN:1004,_RNCNvNtNtNtCs64AwlgGXCHI_10valknut_rs3api7results5testss_25test_generate_suggestions0B9_
FN:1012,_RNCNvNtNtNtCs64AwlgGXCHI_10valknut_rs3api7results5testss_25test_generate_suggestionss0_0B9_
FN:1008,_RNCNvNtNtNtCs64AwlgGXCHI_10valknut_rs3api7results5testss_25test_generate_suggestionss_0B9_
FNDA:2,_RNvMNtNtCs64AwlgGXCHI_10valknut_rs3api7resultsNtB2_15AnalysisResults10is_healthy
FNDA:1,_RNvMNtNtCs64AwlgGXCHI_10valknut_rs3api7resultsNtB2_15AnalysisResults10top_issues
FNDA:5,_RNvMNtNtCs64AwlgGXCHI_10valknut_rs3api7resultsNtB2_15AnalysisResults14files_analyzed
FNDA:1,_RNvMNtNtCs64AwlgGXCHI_10valknut_rs3api7resultsNtB2_15AnalysisResults19critical_candidates
FNDA:5,_RNvMNtNtCs64AwlgGXCHI_10valknut_rs3api7resultsNtB2_15AnalysisResults21from_pipeline_results
FNDA:1,_RNvMNtNtCs64AwlgGXCHI_10valknut_rs3api7resultsNtB2_15AnalysisResults24high_priority_candidates
FNDA:8,_RNvMNtNtCs64AwlgGXCHI_10valknut_rs3api7resultsNtB2_15AnalysisResults27calculate_code_health_score
FNDA:1,_RNvMs_NtNtCs64AwlgGXCHI_10valknut_rs3api7resultsNtB4_20RefactoringCandidate19from_scoring_result
FNDA:2,_RNvMs_NtNtCs64AwlgGXCHI_10valknut_rs3api7resultsNtB4_20RefactoringCandidate20generate_suggestions
FNDA:5,_RNvMs_NtNtCs64AwlgGXCHI_10valknut_rs3api7resultsNtB4_20RefactoringCandidate26generate_issue_description
FNDA:7,_RNvMs_NtNtCs64AwlgGXCHI_10valknut_rs3api7resultsNtB4_20RefactoringCandidate27feature_belongs_to_category
FNDA:1,_RNvNtNtNtCs64AwlgGXCHI_10valknut_rs3api7results5testss_24test_memory_stats_fields
FNDA:1,_RNvNtNtNtCs64AwlgGXCHI_10valknut_rs3api7results5testss_25test_generate_suggestions
FNDA:1,_RNvNtNtNtCs64AwlgGXCHI_10valknut_rs3api7results5testss_28test_code_health_calculation
FNDA:1,_RNvNtNtNtCs64AwlgGXCHI_10valknut_rs3api7results5testss_29test_analysis_summary_default
FNDA:1,_RNvNtNtNtCs64AwlgGXCHI_10valknut_rs3api7results5testss_31test_generate_issue_description
FNDA:1,_RNvNtNtNtCs64AwlgGXCHI_10valknut_rs3api7results5testss_31test_refactoring_issue_creation
FNDA:1,_RNvNtNtNtCs64AwlgGXCHI_10valknut_rs3api7results5testss_32test_analysis_results_is_healthy
FNDA:1,_RNvNtNtNtCs64AwlgGXCHI_10valknut_rs3api7results5testss_32test_analysis_results_top_issues
FNDA:1,_RNvNtNtNtCs64AwlgGXCHI_10valknut_rs3api7results5testss_32test_feature_belongs_to_category
FNDA:1,_RNvNtNtNtCs64AwlgGXCHI_10valknut_rs3api7results5testss_33test_analysis_statistics_creation
FNDA:1,_RNvNtNtNtCs64AwlgGXCHI_10valknut_rs3api7results5testss_33test_refactoring_candidate_fields
FNDA:1,_RNvNtNtNtCs64AwlgGXCHI_10valknut_rs3api7results5testss_34test_feature_contribution_creation
FNDA:1,_RNvNtNtNtCs64AwlgGXCHI_10valknut_rs3api7results5testss_34test_serialization_deserialization
FNDA:1,_RNvNtNtNtCs64AwlgGXCHI_10valknut_rs3api7results5testss_35test_refactoring_candidate_creation
FNDA:1,_RNvNtNtNtCs64AwlgGXCHI_10valknut_rs3api7results5testss_36test_analysis_results_files_analyzed
FNDA:1,_RNvNtNtNtCs64AwlgGXCHI_10valknut_rs3api7results5testss_36test_refactoring_suggestion_creation
FNDA:1,_RNvNtNtNtCs64AwlgGXCHI_10valknut_rs3api7results5testss_41test_analysis_results_critical_candidates
FNDA:1,_RNvNtNtNtCs64AwlgGXCHI_10valknut_rs3api7results5testss_43test_calculate_code_health_score_edge_cases
FNDA:0,_RNCNCNvMs_NtNtCs64AwlgGXCHI_10valknut_rs3api7resultsNtB8_20RefactoringCandidate19from_scoring_results4_00Bc_
FNDA:0,_RNCNCNvMs_NtNtCs64AwlgGXCHI_10valknut_rs3api7resultsNtB8_20RefactoringCandidate19from_scoring_results4_0s_0Bc_
FNDA:1,_RNCNvMNtNtCs64AwlgGXCHI_10valknut_rs3api7resultsNtB4_15AnalysisResults10top_issues0B8_
FNDA:2,_RNCNvMNtNtCs64AwlgGXCHI_10valknut_rs3api7resultsNtB4_15AnalysisResults19critical_candidates0B8_
FNDA:0,_RNCNvMNtNtCs64AwlgGXCHI_10valknut_rs3api7resultsNtB4_15AnalysisResults21from_pipeline_results0B8_
FNDA:0,_RNCNvMNtNtCs64AwlgGXCHI_10valknut_rs3api7resultsNtB4_15AnalysisResults21from_pipeline_resultss0_0B8_
FNDA:0,_RNCNvMNtNtCs64AwlgGXCHI_10valknut_rs3api7resultsNtB4_15AnalysisResults21from_pipeline_resultss1_0B8_
FNDA:0,_RNCNvMNtNtCs64AwlgGXCHI_10valknut_rs3api7resultsNtB4_15AnalysisResults21from_pipeline_resultss2_0B8_
FNDA:0,_RNCNvMNtNtCs64AwlgGXCHI_10valknut_rs3api7resultsNtB4_15AnalysisResults21from_pipeline_resultss_0B8_
FNDA:2,_RNCNvMNtNtCs64AwlgGXCHI_10valknut_rs3api7resultsNtB4_15AnalysisResults24high_priority_candidates0B8_
FNDA:0,_RNCNvMs_NtNtCs64AwlgGXCHI_10valknut_rs3api7resultsNtB6_20RefactoringCandidate19from_scoring_result0Ba_
FNDA:0,_RNCNvMs_NtNtCs64AwlgGXCHI_10valknut_rs3api7resultsNtB6_20RefactoringCandidate19from_scoring_results0_0Ba_
FNDA:0,_RNCNvMs_NtNtCs64AwlgGXCHI_10valknut_rs3api7resultsNtB6_20RefactoringCandidate19from_scoring_results1_0Ba_
FNDA:0,_RNCNvMs_NtNtCs64AwlgGXCHI_10valknut_rs3api7resultsNtB6_20RefactoringCandidate19from_scoring_results2_0Ba_
FNDA:1,_RNCNvMs_NtNtCs64AwlgGXCHI_10valknut_rs3api7resultsNtB6_20RefactoringCandidate19from_scoring_results3_0Ba_
FNDA:1,_RNCNvMs_NtNtCs64AwlgGXCHI_10valknut_rs3api7resultsNtB6_20RefactoringCandidate19from_scoring_results4_0Ba_
FNDA:0,_RNCNvMs_NtNtCs64AwlgGXCHI_10valknut_rs3api7resultsNtB6_20RefactoringCandidate19from_scoring_results_0Ba_
FNDA:3,_RNCNvMs_NtNtCs64AwlgGXCHI_10valknut_rs3api7resultsNtB6_20RefactoringCandidate20generate_suggestions0Ba_
FNDA:3,_RNCNvMs_NtNtCs64AwlgGXCHI_10valknut_rs3api7resultsNtB6_20RefactoringCandidate20generate_suggestionss_0Ba_
FNDA:1,_RNCNvNtNtNtCs64AwlgGXCHI_10valknut_rs3api7results5testss_25test_generate_suggestions0B9_
FNDA:3,_RNCNvNtNtNtCs64AwlgGXCHI_10valknut_rs3api7results5testss_25test_generate_suggestionss0_0B9_
FNDA:2,_RNCNvNtNtNtCs64AwlgGXCHI_10valknut_rs3api7results5testss_25test_generate_suggestionss_0B9_
FNF:51
FNH:39
DA:179,5
DA:180,5
DA:183,5
DA:184,5
DA:185,5
DA:186,5
DA:187,5
DA:188,5
DA:189,5
DA:192,5
DA:193,5
DA:194,0
DA:195,0
DA:196,0
DA:199,5
DA:200,5
DA:201,5
DA:202,5
DA:203,5
DA:205,5
DA:206,5
DA:207,5
DA:208,5
DA:209,5
DA:212,5
DA:214,5
DA:215,5
DA:216,5
DA:217,5
DA:218,5
DA:219,5
DA:220,5
DA:221,5
DA:222,5
DA:224,5
DA:225,5
DA:226,5
DA:227,5
DA:228,5
DA:229,5
DA:230,5
DA:231,5
DA:232,5
DA:233,5
DA:234,5
DA:235,5
DA:236,5
DA:237,5
DA:238,5
DA:239,5
DA:240,5
DA:242,5
DA:243,5
DA:244,5
DA:245,5
DA:247,5
DA:248,5
DA:249,5
DA:250,5
DA:251,5
DA:252,5
DA:253,5
DA:254,5
DA:257,8
DA:258,8
DA:259,5
DA:260,3
DA:262,3
DA:263,3
DA:266,3
DA:268,3
DA:269,8
DA:272,5
DA:273,5
DA:274,5
DA:277,1
DA:278,1
DA:279,1
DA:280,2
DA:281,1
DA:284,1
DA:285,1
DA:286,1
DA:287,2
DA:288,1
DA:291,2
DA:292,2
DA:293,2
DA:296,1
DA:297,1
DA:299,3
DA:300,5
DA:301,3
DA:302,3
DA:305,1
DA:306,1
DA:307,1
DA:308,1
DA:313,1
DA:315,1
DA:316,1
DA:317,1
DA:320,1
DA:322,0
DA:323,0
DA:324,0
DA:325,0
DA:327,0
DA:328,0
DA:329,0
DA:330,0
DA:332,0
DA:333,0
DA:334,0
DA:335,0
DA:336,0
DA:337,0
DA:338,0
DA:340,0
DA:342,0
DA:344,0
DA:346,1
DA:350,1
DA:351,2
DA:352,1
DA:353,1
DA:354,1
DA:355,1
DA:356,1
DA:357,1
DA:358,1
DA:359,1
DA:360,1
DA:361,1
DA:362,1
DA:364,1
DA:365,1
DA:366,1
DA:367,1
DA:368,1
DA:369,1
DA:370,1
DA:371,1
DA:373,1
DA:374,1
DA:375,1
DA:376,1
DA:377,1
DA:378,1
DA:380,1
DA:381,0
DA:385,1
DA:387,1
DA:388,1
DA:389,1
DA:390,1
DA:391,1
DA:392,1
DA:393,1
DA:394,1
DA:395,1
DA:396,1
DA:397,1
DA:398,1
DA:401,7
DA:402,7
DA:403,7
DA:404,4
DA:405,3
DA:406,1
DA:408,7
DA:411,5
DA:412,5
DA:413,1
DA:414,4
DA:415,2
DA:416,2
DA:417,1
DA:419,1
DA:422,5
DA:423,5
DA:424,3
DA:425,2
DA:426,1
DA:428,5
DA:431,2
DA:432,2
DA:434,6
DA:435,4
DA:436,4
DA:437,3
DA:438,1
DA:439,1
DA:440,1
DA:441,1
DA:442,1
DA:443,1
DA:444,1
DA:445,2
DA:447,3
DA:448,3
DA:449,3
DA:450,3
DA:451,3
DA:452,3
DA:453,3
DA:454,3
DA:455,3
DA:457,1
DA:458,1
DA:459,1
DA:460,1
DA:461,1
DA:462,1
DA:463,1
DA:464,1
DA:465,1
DA:466,0
DA:471,3
DA:472,3
DA:474,2
DA:475,2
DA:486,1
DA:487,1
DA:488,1
DA:489,1
DA:490,1
DA:491,1
DA:492,1
DA:493,1
DA:494,1
DA:495,1
DA:497,1
DA:498,1
DA:499,1
DA:500,1
DA:503,1
DA:504,1
DA:505,1
DA:506,1
DA:507,1
DA:508,1
DA:509,1
DA:510,1
DA:511,1
DA:512,1
DA:514,1
DA:515,1
DA:517,1
DA:519,1
DA:520,1
DA:521,1
DA:522,1
DA:523,1
DA:526,1
DA:527,1
DA:528,1
DA:529,1
DA:530,1
DA:531,1
DA:532,1
DA:533,1
DA:534,1
DA:535,1
DA:537,1
DA:538,1
DA:539,1
DA:540,1
DA:541,1
DA:542,1
DA:543,1
DA:544,1
DA:547,1
DA:548,1
DA:549,1
DA:550,1
DA:551,1
DA:552,1
DA:553,1
DA:554,1
DA:555,1
DA:556,1
DA:557,1
DA:558,1
DA:560,1
DA:561,1
DA:562,1
DA:563,1
DA:564,1
DA:565,1
DA:566,1
DA:567,1
DA:570,1
DA:571,1
DA:572,1
DA:573,1
DA:574,1
DA:575,1
DA:576,1
DA:578,1
DA:579,1
DA:580,1
DA:581,1
DA:582,1
DA:583,1
DA:585,1
DA:586,1
DA:587,1
DA:588,1
DA:589,1
DA:590,1
DA:593,1
DA:594,1
DA:595,1
DA:596,1
DA:597,1
DA:598,1
DA:599,1
DA:600,1
DA:602,1
DA:603,1
DA:604,1
DA:605,1
DA:606,1
DA:607,1
DA:610,1
DA:611,1
DA:612,1
DA:613,1
DA:614,1
DA:615,1
DA:616,1
DA:618,1
DA:619,1
DA:620,1
DA:621,1
DA:622,1
DA:625,1
DA:626,1
DA:627,1
DA:628,1
DA:630,1
DA:631,1
DA:632,1
DA:634,1
DA:635,1
DA:636,1
DA:637,1
DA:638,1
DA:640,1
DA:641,1
DA:642,1
DA:643,1
DA:644,1
DA:645,1
DA:646,1
DA:647,1
DA:648,1
DA:650,1
DA:651,1
DA:652,1
DA:653,1
DA:654,1
DA:655,1
DA:656,1
DA:657,1
DA:658,1
DA:661,1
DA:662,1
DA:663,1
DA:664,1
DA:665,1
DA:666,1
DA:668,1
DA:669,1
DA:670,1
DA:671,1
DA:674,1
DA:675,1
DA:676,1
DA:677,1
DA:678,1
DA:679,1
DA:680,1
DA:681,1
DA:682,1
DA:683,1
DA:685,1
DA:686,1
DA:687,1
DA:688,1
DA:689,1
DA:690,1
DA:691,1
DA:692,1
DA:693,1
DA:694,1
DA:695,1
DA:696,1
DA:697,1
DA:698,1
DA:699,1
DA:700,1
DA:701,1
DA:702,1
DA:704,1
DA:705,1
DA:708,1
DA:709,1
DA:710,1
DA:711,1
DA:712,1
DA:713,1
DA:714,1
DA:715,1
DA:716,1
DA:717,1
DA:718,1
DA:719,1
DA:721,1
DA:722,1
DA:723,1
DA:724,1
DA:725,1
DA:726,1
DA:727,1
DA:728,1
DA:729,1
DA:730,1
DA:731,1
DA:733,1
DA:734,1
DA:735,1
DA:736,1
DA:737,1
DA:738,1
DA:739,1
DA:740,1
DA:741,1
DA:742,1
DA:743,1
DA:744,1
DA:745,1
DA:746,1
DA:747,1
DA:748,1
DA:749,1
DA:750,1
DA:751,1
DA:752,1
DA:753,1
DA:754,1
DA:755,1
DA:756,1
DA:757,1
DA:758,1
DA:760,1
DA:761,1
DA:763,1
DA:764,1
DA:765,1
DA:768,1
DA:769,1
DA:770,1
DA:771,1
DA:772,1
DA:773,1
DA:774,1
DA:775,1
DA:776,1
DA:777,1
DA:778,1
DA:779,1
DA:780,1
DA:781,1
DA:782,1
DA:783,1
DA:784,1
DA:785,1
DA:786,1
DA:787,1
DA:788,1
DA:789,1
DA:790,1
DA:791,1
DA:792,1
DA:793,1
DA:794,1
DA:796,1
DA:798,1
DA:799,1
DA:800,1
DA:801,1
DA:802,1
DA:803,1
DA:804,1
DA:805,1
DA:806,1
DA:807,1
DA:808,1
DA:809,1
DA:810,1
DA:811,1
DA:812,1
DA:813,1
DA:814,1
DA:815,1
DA:816,1
DA:817,1
DA:818,1
DA:819,1
DA:820,1
DA:821,1
DA:822,1
DA:823,1
DA:825,1
DA:826,1
DA:829,1
DA:830,1
DA:831,1
DA:832,1
DA:833,1
DA:834,1
DA:835,1
DA:837,1
DA:838,1
DA:839,1
DA:840,1
DA:841,1
DA:842,1
DA:844,1
DA:845,1
DA:846,1
DA:847,1
DA:848,1
DA:849,1
DA:851,1
DA:852,1
DA:853,1
DA:854,1
DA:855,1
DA:856,1
DA:857,1
DA:858,1
DA:859,1
DA:860,1
DA:861,1
DA:863,1
DA:864,1
DA:865,1
DA:866,1
DA:867,1
DA:868,1
DA:869,1
DA:870,1
DA:871,1
DA:872,1
DA:873,1
DA:875,1
DA:876,1
DA:877,1
DA:878,1
DA:879,1
DA:880,1
DA:881,1
DA:882,1
DA:883,1
DA:884,1
DA:885,1
DA:886,1
DA:887,1
DA:888,1
DA:889,1
DA:890,1
DA:891,1
DA:892,1
DA:893,1
DA:894,1
DA:895,1
DA:896,1
DA:897,1
DA:898,1
DA:899,1
DA:900,1
DA:902,1
DA:903,1
DA:906,1
DA:907,1
DA:910,1
DA:911,1
DA:912,1
DA:915,1
DA:917,1
DA:918,1
DA:919,1
DA:920,1
DA:921,1
DA:922,1
DA:923,1
DA:924,1
DA:925,1
DA:926,1
DA:927,1
DA:930,1
DA:931,1
DA:932,1
DA:933,1
DA:934,1
DA:935,1
DA:936,1
DA:937,1
DA:938,1
DA:939,1
DA:940,1
DA:941,1
DA:942,1
DA:943,1
DA:946,1
DA:947,1
DA:948,1
DA:949,1
DA:950,1
DA:951,1
DA:952,1
DA:953,1
DA:956,1
DA:957,1
DA:958,1
DA:959,1
DA:961,1
DA:962,1
DA:963,1
DA:965,1
DA:966,1
DA:967,1
DA:969,1
DA:970,1
DA:971,1
DA:972,1
DA:975,1
DA:976,1
DA:977,1
DA:978,1
DA:979,1
DA:980,1
DA:981,1
DA:983,1
DA:984,1
DA:985,1
DA:986,1
DA:987,1
DA:988,1
DA:990,1
DA:991,1
DA:992,1
DA:993,1
DA:994,1
DA:995,1
DA:997,1
DA:998,1
DA:1001,1
DA:1004,1
DA:1005,1
DA:1008,2
DA:1009,1
DA:1012,3
DA:1013,1
DA:1016,1
DA:1017,2
DA:1018,2
DA:1020,0
DA:1021,1
DA:1024,1
DA:1025,1
DA:1026,1
DA:1027,1
DA:1028,1
DA:1029,1
DA:1030,1
DA:1031,1
DA:1032,1
DA:1033,1
DA:1034,1
DA:1035,1
DA:1036,1
DA:1037,1
DA:1038,1
DA:1039,1
DA:1040,1
DA:1041,1
DA:1042,1
DA:1043,1
DA:1044,1
DA:1045,1
DA:1046,1
DA:1047,1
DA:1048,1
DA:1049,1
DA:1050,1
DA:1053,1
DA:1054,1
DA:1056,1
DA:1057,1
DA:1058,1
DA:1059,1
DA:1060,1
BRF:0
BRH:0
LF:728
LH:692
end_of_record
SF:/home/nathan/Projects/valknut/src/core/bayesian.rs
FN:362,_RNCNvMs1_NtNtCs64AwlgGXCHI_10valknut_rs4core8bayesianNtB7_18BayesianNormalizer18normalize_parallel0Bb_
FN:359,_RNvMs1_NtNtCs64AwlgGXCHI_10valknut_rs4core8bayesianNtB5_18BayesianNormalizer18normalize_parallel
FN:377,_RNvMs1_NtNtCs64AwlgGXCHI_10valknut_rs4core8bayesianNtB5_18BayesianNormalizer20normalize_batch_simd
FN:48,_RNvMNtNtCs64AwlgGXCHI_10valknut_rs4core8bayesianNtB2_18VarianceConfidence12from_samples
FN:37,_RNvMNtNtCs64AwlgGXCHI_10valknut_rs4core8bayesianNtB2_18VarianceConfidence5score
FN:172,_RNvMs0_NtNtCs64AwlgGXCHI_10valknut_rs4core8bayesianNtB5_17FeatureStatistics11from_values
FN:583,_RNvMs1_NtNtCs64AwlgGXCHI_10valknut_rs4core8bayesianNtB5_18BayesianNormalizer14get_confidence
FN:573,_RNvMs1_NtNtCs64AwlgGXCHI_10valknut_rs4core8bayesianNtB5_18BayesianNormalizer14get_statistics
FN:593,_RNvMs1_NtNtCs64AwlgGXCHI_10valknut_rs4core8bayesianNtB5_18BayesianNormalizer15get_diagnostics
FN:441,_RNvMs1_NtNtCs64AwlgGXCHI_10valknut_rs4core8bayesianNtB5_18BayesianNormalizer15normalize_value
FN:481,_RNvMs1_NtNtCs64AwlgGXCHI_10valknut_rs4core8bayesianNtB5_18BayesianNormalizer16robust_normalize
FN:492,_RNvMs1_NtNtCs64AwlgGXCHI_10valknut_rs4core8bayesianNtB5_18BayesianNormalizer18bayesian_normalize
FN:578,_RNvMs1_NtNtCs64AwlgGXCHI_10valknut_rs4core8bayesianNtB5_18BayesianNormalizer18get_all_statistics
FN:565,_RNvMs1_NtNtCs64AwlgGXCHI_10valknut_rs4core8bayesianNtB5_18BayesianNormalizer20create_generic_prior
FN:550,_RNvMs1_NtNtCs64AwlgGXCHI_10valknut_rs4core8bayesianNtB5_18BayesianNormalizer22calculate_prior_weight
FN:519,_RNvMs1_NtNtCs64AwlgGXCHI_10valknut_rs4core8bayesianNtB5_18BayesianNormalizer25calculate_posterior_stats
FN:231,_RNvMs1_NtNtCs64AwlgGXCHI_10valknut_rs4core8bayesianNtB5_18BayesianNormalizer25initialize_feature_priors
FN:508,_RNvMs1_NtNtCs64AwlgGXCHI_10valknut_rs4core8bayesianNtB5_18BayesianNormalizer28sample_from_prior_normalized
FN:296,_RNvMs1_NtNtCs64AwlgGXCHI_10valknut_rs4core8bayesianNtB5_18BayesianNormalizer3fit
FN:588,_RNvMs1_NtNtCs64AwlgGXCHI_10valknut_rs4core8bayesianNtB5_18BayesianNormalizer9add_prior
FN:342,_RNvMs1_NtNtCs64AwlgGXCHI_10valknut_rs4core8bayesianNtB5_18BayesianNormalizer9normalize
FN:129,_RNvMs_NtNtCs64AwlgGXCHI_10valknut_rs4core8bayesianNtB4_12FeaturePrior10prior_mean
FN:114,_RNvMs_NtNtCs64AwlgGXCHI_10valknut_rs4core8bayesianNtB4_12FeaturePrior10with_range
FN:134,_RNvMs_NtNtCs64AwlgGXCHI_10valknut_rs4core8bayesianNtB4_12FeaturePrior14prior_variance
FN:107,_RNvMs_NtNtCs64AwlgGXCHI_10valknut_rs4core8bayesianNtB4_12FeaturePrior16with_beta_params
FN:140,_RNvMs_NtNtCs64AwlgGXCHI_10valknut_rs4core8bayesianNtB4_12FeaturePrior21effective_sample_size
FN:640,_RNvNtNtNtCs64AwlgGXCHI_10valknut_rs4core8bayesian5testss_18test_feature_prior
FN:651,_RNvNtNtNtCs64AwlgGXCHI_10valknut_rs4core8bayesian5testss_24test_bayesian_normalizer
FN:628,_RNvNtNtNtCs64AwlgGXCHI_10valknut_rs4core8bayesian5testss_24test_variance_confidence
FN:677,_RNvNtNtNtCs64AwlgGXCHI_10valknut_rs4core8bayesian5testss_26test_posterior_calculation
FN:732,_RNvNtNtNtCs64AwlgGXCHI_10valknut_rs4core8bayesian5testss_28test_feature_prior_with_type
FN:740,_RNvNtNtNtCs64AwlgGXCHI_10valknut_rs4core8bayesian5testss_29test_feature_prior_with_range
FN:833,_RNvNtNtNtCs64AwlgGXCHI_10valknut_rs4core8bayesian5testss_30test_variance_confidence_score
FN:842,_RNvNtNtNtCs64AwlgGXCHI_10valknut_rs4core8bayesian5testss_32test_feature_prior_type_variants
FN:759,_RNvNtNtNtCs64AwlgGXCHI_10valknut_rs4core8bayesian5testss_33test_feature_prior_prior_variance
FN:814,_RNvNtNtNtCs64AwlgGXCHI_10valknut_rs4core8bayesian5testss_34test_bayesian_normalizer_add_prior
FN:769,_RNvNtNtNtCs64AwlgGXCHI_10valknut_rs4core8bayesian5testss_35test_feature_statistics_from_values
FN:853,_RNvNtNtNtCs64AwlgGXCHI_10valknut_rs4core8bayesian5testss_40test_bayesian_normalizer_normalize_value
FN:750,_RNvNtNtNtCs64AwlgGXCHI_10valknut_rs4core8bayesian5testss_40test_feature_prior_effective_sample_size
FN:781,_RNvNtNtNtCs64AwlgGXCHI_10valknut_rs4core8bayesian5testss_43test_bayesian_normalizer_confidence_methods
FN:825,_RNvNtNtNtCs64AwlgGXCHI_10valknut_rs4core8bayesian5testss_43test_bayesian_normalizer_get_all_statistics
FN:706,_RNvNtNtNtCs64AwlgGXCHI_10valknut_rs4core8bayesian5testss_44test_bayesian_normalizer_batch_normalization
FN:889,_RNvNtNtNtCs64AwlgGXCHI_10valknut_rs4core8bayesian5testss_45test_bayesian_normalizer_create_generic_prior
FN:217,_RINvMs1_NtNtCs64AwlgGXCHI_10valknut_rs4core8bayesianNtB6_18BayesianNormalizer3newNtNtCs8Ty2CzGA6U3_5alloc6string6StringEBa_
FN:217,_RINvMs1_NtNtCs64AwlgGXCHI_10valknut_rs4core8bayesianNtB6_18BayesianNormalizer3newReEBa_
FN:90,_RINvMs_NtNtCs64AwlgGXCHI_10valknut_rs4core8bayesianNtB5_12FeaturePrior3newReEB9_
FN:122,_RINvMs_NtNtCs64AwlgGXCHI_10valknut_rs4core8bayesianNtB5_12FeaturePrior9with_typeReB1g_EB9_
FN:176,_RNCNvMs0_NtNtCs64AwlgGXCHI_10valknut_rs4core8bayesianNtB7_17FeatureStatistics11from_values0Bb_
FN:182,_RNCNvMs0_NtNtCs64AwlgGXCHI_10valknut_rs4core8bayesianNtB7_17FeatureStatistics11from_valuess0_0Bb_
FN:181,_RNCNvMs0_NtNtCs64AwlgGXCHI_10valknut_rs4core8bayesianNtB7_17FeatureStatistics11from_valuess_0Bb_
FN:598,_RNCNvMs1_NtNtCs64AwlgGXCHI_10valknut_rs4core8bayesianNtB7_18BayesianNormalizer15get_diagnostics0Bb_
FN:615,_RNCNvMs1_NtNtCs64AwlgGXCHI_10valknut_rs4core8bayesianNtB7_18BayesianNormalizer15get_diagnosticss0_0Bb_
FN:321,_RNCNvMs1_NtNtCs64AwlgGXCHI_10valknut_rs4core8bayesianNtB7_18BayesianNormalizer3fit0Bb_
FN:651,_RNCNvNtNtNtCs64AwlgGXCHI_10valknut_rs4core8bayesian5testss_24test_bayesian_normalizer0B9_
FN:706,_RNCNvNtNtNtCs64AwlgGXCHI_10valknut_rs4core8bayesian5testss_44test_bayesian_normalizer_batch_normalization0B9_
FNDA:0,_RNCNvMs1_NtNtCs64AwlgGXCHI_10valknut_rs4core8bayesianNtB7_18BayesianNormalizer18normalize_parallel0Bb_
FNDA:0,_RNvMs1_NtNtCs64AwlgGXCHI_10valknut_rs4core8bayesianNtB5_18BayesianNormalizer18normalize_parallel
FNDA:0,_RNvMs1_NtNtCs64AwlgGXCHI_10valknut_rs4core8bayesianNtB5_18BayesianNormalizer20normalize_batch_simd
FNDA:6,_RNvMNtNtCs64AwlgGXCHI_10valknut_rs4core8bayesianNtB2_18VarianceConfidence12from_samples
FNDA:5,_RNvMNtNtCs64AwlgGXCHI_10valknut_rs4core8bayesianNtB2_18VarianceConfidence5score
FNDA:5,_RNvMs0_NtNtCs64AwlgGXCHI_10valknut_rs4core8bayesianNtB5_17FeatureStatistics11from_values
FNDA:1,_RNvMs1_NtNtCs64AwlgGXCHI_10valknut_rs4core8bayesianNtB5_18BayesianNormalizer14get_confidence
FNDA:2,_RNvMs1_NtNtCs64AwlgGXCHI_10valknut_rs4core8bayesianNtB5_18BayesianNormalizer14get_statistics
FNDA:0,_RNvMs1_NtNtCs64AwlgGXCHI_10valknut_rs4core8bayesianNtB5_18BayesianNormalizer15get_diagnostics
FNDA:12,_RNvMs1_NtNtCs64AwlgGXCHI_10valknut_rs4core8bayesianNtB5_18BayesianNormalizer15normalize_value
FNDA:0,_RNvMs1_NtNtCs64AwlgGXCHI_10valknut_rs4core8bayesianNtB5_18BayesianNormalizer16robust_normalize
FNDA:0,_RNvMs1_NtNtCs64AwlgGXCHI_10valknut_rs4core8bayesianNtB5_18BayesianNormalizer18bayesian_normalize
FNDA:1,_RNvMs1_NtNtCs64AwlgGXCHI_10valknut_rs4core8bayesianNtB5_18BayesianNormalizer18get_all_statistics
FNDA:5,_RNvMs1_NtNtCs64AwlgGXCHI_10valknut_rs4core8bayesianNtB5_18BayesianNormalizer20create_generic_prior
FNDA:5,_RNvMs1_NtNtCs64AwlgGXCHI_10valknut_rs4core8bayesianNtB5_18BayesianNormalizer22calculate_prior_weight
FNDA:5,_RNvMs1_NtNtCs64AwlgGXCHI_10valknut_rs4core8bayesianNtB5_18BayesianNormalizer25calculate_posterior_stats
FNDA:8,_RNvMs1_NtNtCs64AwlgGXCHI_10valknut_rs4core8bayesianNtB5_18BayesianNormalizer25initialize_feature_priors
FNDA:0,_RNvMs1_NtNtCs64AwlgGXCHI_10valknut_rs4core8bayesianNtB5_18BayesianNormalizer28sample_from_prior_normalized
FNDA:3,_RNvMs1_NtNtCs64AwlgGXCHI_10valknut_rs4core8bayesianNtB5_18BayesianNormalizer3fit
FNDA:1,_RNvMs1_NtNtCs64AwlgGXCHI_10valknut_rs4core8bayesianNtB5_18BayesianNormalizer9add_prior
FNDA:2,_RNvMs1_NtNtCs64AwlgGXCHI_10valknut_rs4core8bayesianNtB5_18BayesianNormalizer9normalize
FNDA:6,_RNvMs_NtNtCs64AwlgGXCHI_10valknut_rs4core8bayesianNtB4_12FeaturePrior10prior_mean
FNDA:120,_RNvMs_NtNtCs64AwlgGXCHI_10valknut_rs4core8bayesianNtB4_12FeaturePrior10with_range
FNDA:6,_RNvMs_NtNtCs64AwlgGXCHI_10valknut_rs4core8bayesianNtB4_12FeaturePrior14prior_variance
FNDA:122,_RNvMs_NtNtCs64AwlgGXCHI_10valknut_rs4core8bayesianNtB4_12FeaturePrior16with_beta_params
FNDA:1,_RNvMs_NtNtCs64AwlgGXCHI_10valknut_rs4core8bayesianNtB4_12FeaturePrior21effective_sample_size
FNDA:1,_RNvNtNtNtCs64AwlgGXCHI_10valknut_rs4core8bayesian5testss_18test_feature_prior
FNDA:1,_RNvNtNtNtCs64AwlgGXCHI_10valknut_rs4core8bayesian5testss_24test_bayesian_normalizer
FNDA:1,_RNvNtNtNtCs64AwlgGXCHI_10valknut_rs4core8bayesian5testss_24test_variance_confidence
FNDA:1,_RNvNtNtNtCs64AwlgGXCHI_10valknut_rs4core8bayesian5testss_26test_posterior_calculation
FNDA:1,_RNvNtNtNtCs64AwlgGXCHI_10valknut_rs4core8bayesian5testss_28test_feature_prior_with_type
FNDA:1,_RNvNtNtNtCs64AwlgGXCHI_10valknut_rs4core8bayesian5testss_29test_feature_prior_with_range
FNDA:1,_RNvNtNtNtCs64AwlgGXCHI_10valknut_rs4core8bayesian5testss_30test_variance_confidence_score
FNDA:1,_RNvNtNtNtCs64AwlgGXCHI_10valknut_rs4core8bayesian5testss_32test_feature_prior_type_variants
FNDA:1,_RNvNtNtNtCs64AwlgGXCHI_10valknut_rs4core8bayesian5testss_33test_feature_prior_prior_variance
FNDA:1,_RNvNtNtNtCs64AwlgGXCHI_10valknut_rs4core8bayesian5testss_34test_bayesian_normalizer_add_prior
FNDA:1,_RNvNtNtNtCs64AwlgGXCHI_10valknut_rs4core8bayesian5testss_35test_feature_statistics_from_values
FNDA:1,_RNvNtNtNtCs64AwlgGXCHI_10valknut_rs4core8bayesian5testss_40test_bayesian_normalizer_normalize_value
FNDA:1,_RNvNtNtNtCs64AwlgGXCHI_10valknut_rs4core8bayesian5testss_40test_feature_prior_effective_sample_size
FNDA:1,_RNvNtNtNtCs64AwlgGXCHI_10valknut_rs4core8bayesian5testss_43test_bayesian_normalizer_confidence_methods
FNDA:1,_RNvNtNtNtCs64AwlgGXCHI_10valknut_rs4core8bayesian5testss_43test_bayesian_normalizer_get_all_statistics
FNDA:1,_RNvNtNtNtCs64AwlgGXCHI_10valknut_rs4core8bayesian5testss_44test_bayesian_normalizer_batch_normalization
FNDA:1,_RNvNtNtNtCs64AwlgGXCHI_10valknut_rs4core8bayesian5testss_45test_bayesian_normalizer_create_generic_prior
FNDA:0,_RINvMs1_NtNtCs64AwlgGXCHI_10valknut_rs4core8bayesianNtB6_18BayesianNormalizer3newNtNtCs8Ty2CzGA6U3_5alloc6string6StringEBa_
FNDA:8,_RINvMs1_NtNtCs64AwlgGXCHI_10valknut_rs4core8bayesianNtB6_18BayesianNormalizer3newReEBa_
FNDA:124,_RINvMs_NtNtCs64AwlgGXCHI_10valknut_rs4core8bayesianNtB5_12FeaturePrior3newReEB9_
FNDA:117,_RINvMs_NtNtCs64AwlgGXCHI_10valknut_rs4core8bayesianNtB5_12FeaturePrior9with_typeReB1g_EB9_
FNDA:18,_RNCNvMs0_NtNtCs64AwlgGXCHI_10valknut_rs4core8bayesianNtB7_17FeatureStatistics11from_values0Bb_
FNDA:18,_RNCNvMs0_NtNtCs64AwlgGXCHI_10valknut_rs4core8bayesianNtB7_17FeatureStatistics11from_valuess0_0Bb_
FNDA:18,_RNCNvMs0_NtNtCs64AwlgGXCHI_10valknut_rs4core8bayesianNtB7_17FeatureStatistics11from_valuess_0Bb_
FNDA:0,_RNCNvMs1_NtNtCs64AwlgGXCHI_10valknut_rs4core8bayesianNtB7_18BayesianNormalizer15get_diagnostics0Bb_
FNDA:0,_RNCNvMs1_NtNtCs64AwlgGXCHI_10valknut_rs4core8bayesianNtB7_18BayesianNormalizer15get_diagnosticss0_0Bb_
FNDA:4,_RNCNvMs1_NtNtCs64AwlgGXCHI_10valknut_rs4core8bayesianNtB7_18BayesianNormalizer3fit0Bb_
FNDA:1,_RNCNvNtNtNtCs64AwlgGXCHI_10valknut_rs4core8bayesian5testss_24test_bayesian_normalizer0B9_
FNDA:1,_RNCNvNtNtNtCs64AwlgGXCHI_10valknut_rs4core8bayesian5testss_44test_bayesian_normalizer_batch_normalization0B9_
FNF:54
FNH:45
DA:37,5
DA:38,5
DA:39,1
DA:40,1
DA:41,1
DA:42,1
DA:43,1
DA:45,5
DA:48,6
DA:49,6
DA:50,1
DA:51,5
DA:52,1
DA:53,4
DA:54,0
DA:55,4
DA:56,0
DA:58,4
DA:60,6
DA:90,124
DA:91,124
DA:92,124
DA:93,124
DA:94,124
DA:95,124
DA:96,124
DA:97,124
DA:98,124
DA:99,124
DA:100,124
DA:101,124
DA:102,124
DA:103,124
DA:104,124
DA:107,122
DA:108,122
DA:109,122
DA:110,122
DA:111,122
DA:114,120
DA:115,120
DA:116,120
DA:117,120
DA:118,120
DA:119,120
DA:122,117
DA:123,117
DA:124,117
DA:125,117
DA:126,117
DA:129,6
DA:130,6
DA:131,6
DA:134,6
DA:135,6
DA:136,6
DA:137,6
DA:140,1
DA:141,1
DA:142,1
DA:172,5
DA:173,5
DA:174,5
DA:175,5
DA:176,18
DA:178,0
DA:180,5
DA:181,18
DA:182,18
DA:184,5
DA:185,5
DA:186,5
DA:187,5
DA:188,5
DA:189,5
DA:190,5
DA:191,5
DA:192,5
DA:193,5
DA:194,5
DA:195,5
DA:196,5
DA:217,8
DA:218,8
DA:219,8
DA:220,8
DA:221,8
DA:222,8
DA:223,8
DA:226,8
DA:227,8
DA:228,8
DA:231,8
DA:233,8
DA:234,8
DA:235,8
DA:236,8
DA:237,8
DA:238,8
DA:241,48
DA:242,40
DA:243,40
DA:244,40
DA:245,40
DA:246,40
DA:247,40
DA:250,8
DA:251,8
DA:252,8
DA:253,8
DA:254,8
DA:255,8
DA:258,48
DA:259,40
DA:260,40
DA:261,40
DA:262,40
DA:263,40
DA:264,40
DA:267,8
DA:268,8
DA:269,8
DA:272,24
DA:273,16
DA:274,16
DA:275,16
DA:276,16
DA:277,16
DA:278,16
DA:281,8
DA:282,8
DA:283,8
DA:286,24
DA:287,16
DA:288,16
DA:289,16
DA:290,16
DA:291,16
DA:292,16
DA:293,8
DA:296,3
DA:297,3
DA:298,0
DA:299,3
DA:302,3
DA:303,12
DA:304,22
DA:305,13
DA:306,13
DA:310,7
DA:311,4
DA:312,0
DA:313,4
DA:316,4
DA:319,4
DA:320,4
DA:321,4
DA:324,4
DA:325,4
DA:326,4
DA:327,4
DA:329,4
DA:332,4
DA:334,4
DA:335,4
DA:338,3
DA:339,3
DA:342,2
DA:343,9
DA:344,11
DA:345,11
DA:346,11
DA:347,11
DA:348,0
DA:349,0
DA:350,0
DA:351,0
DA:354,2
DA:355,2
DA:359,0
DA:360,0
DA:361,0
DA:362,0
DA:363,0
DA:364,0
DA:365,0
DA:366,0
DA:367,0
DA:368,0
DA:369,0
DA:371,0
DA:372,0
DA:373,0
DA:377,0
DA:378,0
DA:379,0
DA:382,0
DA:383,0
DA:384,0
DA:385,0
DA:386,0
DA:387,0
DA:388,0
DA:389,0
DA:392,0
DA:393,0
DA:394,0
DA:395,0
DA:396,0
DA:397,0
DA:400,0
DA:401,0
DA:402,0
DA:403,0
DA:406,0
DA:407,0
DA:408,0
DA:409,0
DA:410,0
DA:411,0
DA:412,0
DA:415,0
DA:416,0
DA:417,0
DA:418,0
DA:419,0
DA:420,0
DA:423,0
DA:424,0
DA:425,0
DA:426,0
DA:431,0
DA:432,0
DA:437,0
DA:438,0
DA:441,12
DA:442,12
DA:443,0
DA:444,12
DA:446,12
DA:447,12
DA:448,12
DA:449,0
DA:451,12
DA:454,0
DA:455,0
DA:456,0
DA:457,0
DA:459,0
DA:462,0
DA:464,0
DA:466,0
DA:468,0
DA:471,0
DA:472,0
DA:473,0
DA:477,12
DA:478,12
DA:481,0
DA:484,0
DA:485,0
DA:487,0
DA:489,0
DA:492,0
DA:493,0
DA:495,0
DA:497,0
DA:499,0
DA:503,0
DA:505,0
DA:508,0
DA:511,0
DA:512,0
DA:514,0
DA:516,0
DA:519,5
DA:520,5
DA:521,5
DA:522,5
DA:523,5
DA:524,5
DA:525,5
DA:528,5
DA:529,5
DA:530,5
DA:533,5
DA:534,5
DA:536,5
DA:537,5
DA:538,5
DA:539,5
DA:541,5
DA:542,5
DA:543,5
DA:544,5
DA:546,5
DA:547,5
DA:550,5
DA:551,5
DA:552,0
DA:553,1
DA:554,0
DA:555,4
DA:556,0
DA:560,5
DA:561,5
DA:562,5
DA:565,5
DA:566,5
DA:567,5
DA:568,5
DA:569,5
DA:570,5
DA:573,2
DA:574,2
DA:575,2
DA:578,1
DA:579,1
DA:580,1
DA:583,1
DA:584,1
DA:585,1
DA:588,1
DA:589,1
DA:590,1
DA:593,0
DA:594,0
DA:596,0
DA:597,0
DA:598,0
DA:599,0
DA:600,0
DA:601,0
DA:603,0
DA:604,0
DA:606,0
DA:607,0
DA:608,0
DA:610,0
DA:611,0
DA:612,0
DA:613,0
DA:615,0
DA:618,0
DA:619,0
DA:628,1
DA:629,1
DA:630,1
DA:633,1
DA:634,1
DA:637,1
DA:640,1
DA:641,1
DA:642,1
DA:643,1
DA:645,1
DA:646,1
DA:647,1
DA:648,1
DA:651,1
DA:652,1
DA:655,1
DA:656,1
DA:657,1
DA:658,1
DA:661,1
DA:662,1
DA:663,1
DA:666,1
DA:667,1
DA:670,1
DA:673,1
DA:674,1
DA:677,1
DA:678,1
DA:680,1
DA:681,1
DA:682,1
DA:683,1
DA:684,1
DA:685,1
DA:686,1
DA:687,1
DA:688,1
DA:689,1
DA:690,1
DA:691,1
DA:693,1
DA:694,1
DA:695,1
DA:697,1
DA:700,1
DA:701,1
DA:702,1
DA:703,1
DA:706,1
DA:707,1
DA:709,1
DA:710,1
DA:711,1
DA:712,1
DA:713,1
DA:716,4
DA:717,4
DA:718,4
DA:719,4
DA:721,1
DA:722,1
DA:725,5
DA:726,4
DA:727,4
DA:728,1
DA:729,1
DA:732,1
DA:733,1
DA:736,1
DA:737,1
DA:740,1
DA:741,1
DA:742,1
DA:744,1
DA:745,1
DA:746,1
DA:747,1
DA:750,1
DA:751,1
DA:752,1
DA:754,1
DA:755,1
DA:756,1
DA:759,1
DA:760,1
DA:761,1
DA:763,1
DA:764,1
DA:765,1
DA:766,1
DA:769,1
DA:770,1
DA:771,1
DA:773,1
DA:774,1
DA:775,1
DA:776,1
DA:777,1
DA:778,1
DA:781,1
DA:782,1
DA:785,1
DA:786,1
DA:787,1
DA:788,1
DA:789,1
DA:790,1
DA:791,1
DA:792,1
DA:793,1
DA:794,1
DA:795,1
DA:796,1
DA:799,1
DA:800,1
DA:801,1
DA:802,1
DA:804,1
DA:805,1
DA:806,1
DA:808,1
DA:809,1
DA:810,1
DA:811,1
DA:814,1
DA:815,1
DA:816,1
DA:817,1
DA:819,1
DA:822,1
DA:825,1
DA:826,1
DA:828,1
DA:829,1
DA:830,1
DA:833,1
DA:834,1
DA:835,1
DA:836,1
DA:837,1
DA:838,1
DA:839,1
DA:842,1
DA:844,1
DA:845,1
DA:846,1
DA:849,1
DA:850,1
DA:853,1
DA:854,1
DA:857,1
DA:858,1
DA:859,1
DA:860,1
DA:861,1
DA:862,1
DA:863,1
DA:864,1
DA:865,1
DA:866,1
DA:867,1
DA:868,1
DA:870,1
DA:871,1
DA:872,1
DA:873,1
DA:874,1
DA:875,1
DA:876,1
DA:877,1
DA:878,1
DA:879,1
DA:880,1
DA:881,1
DA:883,1
DA:884,1
DA:885,1
DA:886,1
DA:889,1
DA:890,1
DA:891,1
DA:893,1
DA:895,1
DA:896,1
DA:897,1
BRF:0
BRH:0
LF:545
LH:423
end_of_record
SF:/home/nathan/Projects/valknut/src/core/config.rs
FN:78,_RINvMs_NtNtCs64AwlgGXCHI_10valknut_rs4core6configNtB5_13ValknutConfig12to_yaml_filepEB9_
FN:69,_RINvMs_NtNtCs64AwlgGXCHI_10valknut_rs4core6configNtB5_13ValknutConfig14from_yaml_filepEB9_
FN:82,_RNCINvMs_NtNtCs64AwlgGXCHI_10valknut_rs4core6configNtB7_13ValknutConfig12to_yaml_filepE0Bb_
FN:72,_RNCINvMs_NtNtCs64AwlgGXCHI_10valknut_rs4core6configNtB7_13ValknutConfig14from_yaml_filepE0Bb_
FN:470,_RNvMsb_NtNtCs64AwlgGXCHI_10valknut_rs4core6configNtB5_9LshConfig15hashes_per_band
FN:130,_RNCNvMs_NtNtCs64AwlgGXCHI_10valknut_rs4core6configNtB6_13ValknutConfig8validate0Ba_
FN:203,_RNvMs1_NtNtCs64AwlgGXCHI_10valknut_rs4core6configNtB5_14AnalysisConfig8validate
FN:246,_RNvMs3_NtNtCs64AwlgGXCHI_10valknut_rs4core6configNtB5_13ScoringConfig8validate
FN:304,_RNvMs5_NtNtCs64AwlgGXCHI_10valknut_rs4core6configNtB5_13WeightsConfig8validate
FN:344,_RNvMs7_NtNtCs64AwlgGXCHI_10valknut_rs4core6configNtB5_17StatisticalParams8validate
FN:400,_RNvMs9_NtNtCs64AwlgGXCHI_10valknut_rs4core6configNtB5_11GraphConfig8validate
FN:86,_RNvMs_NtNtCs64AwlgGXCHI_10valknut_rs4core6configNtB4_13ValknutConfig17default_languages
FN:120,_RNvMs_NtNtCs64AwlgGXCHI_10valknut_rs4core6configNtB4_13ValknutConfig8validate
FN:447,_RNvMsb_NtNtCs64AwlgGXCHI_10valknut_rs4core6configNtB5_9LshConfig8validate
FN:499,_RNvMsc_NtNtCs64AwlgGXCHI_10valknut_rs4core6configNtB5_14LanguageConfig8validate
FN:610,_RNvMsf_NtNtCs64AwlgGXCHI_10valknut_rs4core6configNtB5_17PerformanceConfig8validate
FN:51,_RNvXNtNtCs64AwlgGXCHI_10valknut_rs4core6configNtB2_13ValknutConfigNtNtCs66KPHxksi63_4core7default7Default7default
FN:178,_RNvXs0_NtNtCs64AwlgGXCHI_10valknut_rs4core6configNtB5_14AnalysisConfigNtNtCs66KPHxksi63_4core7default7Default7default
FN:233,_RNvXs2_NtNtCs64AwlgGXCHI_10valknut_rs4core6configNtB5_13ScoringConfigNtNtCs66KPHxksi63_4core7default7Default7default
FN:291,_RNvXs4_NtNtCs64AwlgGXCHI_10valknut_rs4core6configNtB5_13WeightsConfigNtNtCs66KPHxksi63_4core7default7Default7default
FN:333,_RNvXs6_NtNtCs64AwlgGXCHI_10valknut_rs4core6configNtB5_17StatisticalParamsNtNtCs66KPHxksi63_4core7default7Default7default
FN:386,_RNvXs8_NtNtCs64AwlgGXCHI_10valknut_rs4core6configNtB5_11GraphConfigNtNtCs66KPHxksi63_4core7default7Default7default
FN:433,_RNvXsa_NtNtCs64AwlgGXCHI_10valknut_rs4core6configNtB5_9LshConfigNtNtCs66KPHxksi63_4core7default7Default7default
FN:544,_RNvXsd_NtNtCs64AwlgGXCHI_10valknut_rs4core6configNtB5_8IoConfigNtNtCs66KPHxksi63_4core7default7Default7default
FN:596,_RNvXse_NtNtCs64AwlgGXCHI_10valknut_rs4core6configNtB5_17PerformanceConfigNtNtCs66KPHxksi63_4core7default7Default7default
FNDA:0,_RINvMs_NtNtCs64AwlgGXCHI_10valknut_rs4core6configNtB5_13ValknutConfig12to_yaml_filepEB9_
FNDA:0,_RINvMs_NtNtCs64AwlgGXCHI_10valknut_rs4core6configNtB5_13ValknutConfig14from_yaml_filepEB9_
FNDA:0,_RNCINvMs_NtNtCs64AwlgGXCHI_10valknut_rs4core6configNtB7_13ValknutConfig12to_yaml_filepE0Bb_
FNDA:0,_RNCINvMs_NtNtCs64AwlgGXCHI_10valknut_rs4core6configNtB7_13ValknutConfig14from_yaml_filepE0Bb_
FNDA:0,_RNvMsb_NtNtCs64AwlgGXCHI_10valknut_rs4core6configNtB5_9LshConfig15hashes_per_band
FNDA:0,_RNCNvMs_NtNtCs64AwlgGXCHI_10valknut_rs4core6configNtB6_13ValknutConfig8validate0Ba_
FNDA:18,_RNvMs1_NtNtCs64AwlgGXCHI_10valknut_rs4core6configNtB5_14AnalysisConfig8validate
FNDA:18,_RNvMs3_NtNtCs64AwlgGXCHI_10valknut_rs4core6configNtB5_13ScoringConfig8validate
FNDA:18,_RNvMs5_NtNtCs64AwlgGXCHI_10valknut_rs4core6configNtB5_13WeightsConfig8validate
FNDA:18,_RNvMs7_NtNtCs64AwlgGXCHI_10valknut_rs4core6configNtB5_17StatisticalParams8validate
FNDA:18,_RNvMs9_NtNtCs64AwlgGXCHI_10valknut_rs4core6configNtB5_11GraphConfig8validate
FNDA:23,_RNvMs_NtNtCs64AwlgGXCHI_10valknut_rs4core6configNtB4_13ValknutConfig17default_languages
FNDA:18,_RNvMs_NtNtCs64AwlgGXCHI_10valknut_rs4core6configNtB4_13ValknutConfig8validate
FNDA:18,_RNvMsb_NtNtCs64AwlgGXCHI_10valknut_rs4core6configNtB5_9LshConfig8validate
FNDA:54,_RNvMsc_NtNtCs64AwlgGXCHI_10valknut_rs4core6configNtB5_14LanguageConfig8validate
FNDA:18,_RNvMsf_NtNtCs64AwlgGXCHI_10valknut_rs4core6configNtB5_17PerformanceConfig8validate
FNDA:23,_RNvXNtNtCs64AwlgGXCHI_10valknut_rs4core6configNtB2_13ValknutConfigNtNtCs66KPHxksi63_4core7default7Default7default
FNDA:23,_RNvXs0_NtNtCs64AwlgGXCHI_10valknut_rs4core6configNtB5_14AnalysisConfigNtNtCs66KPHxksi63_4core7default7Default7default
FNDA:23,_RNvXs2_NtNtCs64AwlgGXCHI_10valknut_rs4core6configNtB5_13ScoringConfigNtNtCs66KPHxksi63_4core7default7Default7default
FNDA:30,_RNvXs4_NtNtCs64AwlgGXCHI_10valknut_rs4core6configNtB5_13WeightsConfigNtNtCs66KPHxksi63_4core7default7Default7default
FNDA:30,_RNvXs6_NtNtCs64AwlgGXCHI_10valknut_rs4core6configNtB5_17StatisticalParamsNtNtCs66KPHxksi63_4core7default7Default7default
FNDA:23,_RNvXs8_NtNtCs64AwlgGXCHI_10valknut_rs4core6configNtB5_11GraphConfigNtNtCs66KPHxksi63_4core7default7Default7default
FNDA:23,_RNvXsa_NtNtCs64AwlgGXCHI_10valknut_rs4core6configNtB5_9LshConfigNtNtCs66KPHxksi63_4core7default7Default7default
FNDA:23,_RNvXsd_NtNtCs64AwlgGXCHI_10valknut_rs4core6configNtB5_8IoConfigNtNtCs66KPHxksi63_4core7default7Default7default
FNDA:23,_RNvXse_NtNtCs64AwlgGXCHI_10valknut_rs4core6configNtB5_17PerformanceConfigNtNtCs66KPHxksi63_4core7default7Default7default
FNF:25
FNH:19
DA:51,23
DA:52,23
DA:53,23
DA:54,23
DA:55,23
DA:56,23
DA:57,23
DA:58,23
DA:59,23
DA:60,23
DA:61,23
DA:62,23
DA:63,23
DA:64,23
DA:69,0
DA:70,0
DA:71,0
DA:72,0
DA:74,0
DA:75,0
DA:78,0
DA:79,0
DA:80,0
DA:81,0
DA:82,0
DA:83,0
DA:86,23
DA:87,23
DA:89,23
DA:90,23
DA:91,23
DA:92,23
DA:93,23
DA:94,23
DA:95,23
DA:96,23
DA:98,23
DA:99,23
DA:100,23
DA:101,23
DA:102,23
DA:103,23
DA:104,23
DA:105,23
DA:107,23
DA:108,23
DA:109,23
DA:110,23
DA:111,23
DA:112,23
DA:113,23
DA:114,23
DA:116,23
DA:117,23
DA:120,18
DA:121,18
DA:122,18
DA:123,18
DA:124,18
DA:125,18
DA:129,72
DA:130,54
DA:131,0
DA:132,0
DA:133,0
DA:136,18
DA:137,18
DA:178,23
DA:179,23
DA:180,23
DA:181,23
DA:182,23
DA:183,23
DA:184,23
DA:185,23
DA:186,23
DA:187,23
DA:188,23
DA:189,23
DA:190,23
DA:191,23
DA:192,23
DA:193,23
DA:194,23
DA:195,23
DA:196,23
DA:197,23
DA:198,23
DA:203,18
DA:204,18
DA:205,0
DA:206,0
DA:207,0
DA:208,18
DA:209,18
DA:210,18
DA:233,23
DA:234,23
DA:235,23
DA:236,23
DA:237,23
DA:238,23
DA:239,23
DA:240,23
DA:241,23
DA:246,18
DA:247,18
DA:248,18
DA:249,18
DA:250,18
DA:291,30
DA:292,30
DA:293,30
DA:294,30
DA:295,30
DA:296,30
DA:297,30
DA:298,30
DA:299,30
DA:304,18
DA:305,18
DA:307,90
DA:308,90
DA:309,0
DA:310,0
DA:311,0
DA:312,90
DA:315,18
DA:316,18
DA:333,30
DA:334,30
DA:335,30
DA:336,30
DA:337,30
DA:338,30
DA:339,30
DA:344,18
DA:345,18
DA:346,0
DA:347,0
DA:348,0
DA:349,18
DA:351,18
DA:352,0
DA:353,18
DA:355,18
DA:356,0
DA:357,18
DA:359,18
DA:360,18
DA:386,23
DA:387,23
DA:388,23
DA:389,23
DA:390,23
DA:391,23
DA:392,23
DA:393,23
DA:394,23
DA:395,23
DA:400,18
DA:401,18
DA:402,0
DA:403,0
DA:404,0
DA:405,18
DA:406,18
DA:407,18
DA:433,23
DA:434,23
DA:435,23
DA:436,23
DA:437,23
DA:438,23
DA:439,23
DA:440,23
DA:441,23
DA:442,23
DA:447,18
DA:448,18
DA:449,0
DA:450,18
DA:452,18
DA:453,0
DA:454,18
DA:456,18
DA:457,0
DA:458,18
DA:460,18
DA:461,0
DA:462,0
DA:463,0
DA:464,18
DA:466,18
DA:467,18
DA:470,0
DA:471,0
DA:472,0
DA:499,54
DA:500,54
DA:501,0
DA:502,54
DA:504,54
DA:505,0
DA:506,54
DA:508,54
DA:509,0
DA:510,54
DA:512,54
DA:513,54
DA:544,23
DA:545,23
DA:546,23
DA:547,23
DA:548,23
DA:549,23
DA:550,23
DA:551,23
DA:552,23
DA:553,23
DA:554,23
DA:555,23
DA:556,23
DA:596,23
DA:597,23
DA:598,23
DA:599,23
DA:600,23
DA:601,23
DA:602,23
DA:603,23
DA:604,23
DA:605,23
DA:610,18
DA:611,18
DA:612,0
DA:613,0
DA:614,0
DA:615,18
DA:617,18
DA:618,0
DA:619,0
DA:620,0
DA:621,18
DA:623,18
DA:624,0
DA:625,18
DA:627,18
DA:628,18
BRF:0
BRH:0
LF:252
LH:201
end_of_record
SF:/home/nathan/Projects/valknut/src/core/errors.rs
FN:674,_RNCNvNtNtNtCs64AwlgGXCHI_10valknut_rs4core6errors5testss_28test_result_ext_with_context0B9_
FN:526,_RNvNtNtNtCs64AwlgGXCHI_10valknut_rs4core6errors5testss_14test_lsh_error
FN:514,_RNvNtNtNtCs64AwlgGXCHI_10valknut_rs4core6errors5testss_16test_graph_error
FN:588,_RNvNtNtNtCs64AwlgGXCHI_10valknut_rs4core6errors5testss_18test_from_io_error
FN:426,_RNvNtNtNtCs64AwlgGXCHI_10valknut_rs4core6errors5testss_19test_error_creation
FN:538,_RNvNtNtNtCs64AwlgGXCHI_10valknut_rs4core6errors5testss_19test_pipeline_error
FN:596,_RNvNtNtNtCs64AwlgGXCHI_10valknut_rs4core6errors5testss_20test_from_json_error
FN:636,_RNvNtNtNtCs64AwlgGXCHI_10valknut_rs4core6errors5testss_20test_from_utf8_error
FN:608,_RNvNtNtNtCs64AwlgGXCHI_10valknut_rs4core6errors5testss_20test_from_yaml_error
FN:447,_RNvNtNtNtCs64AwlgGXCHI_10valknut_rs4core6errors5testss_21test_result_extension
FN:551,_RNvNtNtNtCs64AwlgGXCHI_10valknut_rs4core6errors5testss_21test_validation_error
FN:456,_RNvNtNtNtCs64AwlgGXCHI_10valknut_rs4core6errors5testss_22test_io_error_creation
FN:502,_RNvNtNtNtCs64AwlgGXCHI_10valknut_rs4core6errors5testss_22test_math_with_context
FN:577,_RNvNtNtNtCs64AwlgGXCHI_10valknut_rs4core6errors5testss_22test_unsupported_error
FN:469,_RNvNtNtNtCs64AwlgGXCHI_10valknut_rs4core6errors5testss_23test_config_field_error
FN:435,_RNvNtNtNtCs64AwlgGXCHI_10valknut_rs4core6errors5testss_23test_error_with_context
FN:565,_RNvNtNtNtCs64AwlgGXCHI_10valknut_rs4core6errors5testss_24test_feature_unavailable
FN:481,_RNvNtNtNtCs64AwlgGXCHI_10valknut_rs4core6errors5testss_24test_parse_with_location
FN:620,_RNvNtNtNtCs64AwlgGXCHI_10valknut_rs4core6errors5testss_25test_from_parse_int_error
FN:691,_RNvNtNtNtCs64AwlgGXCHI_10valknut_rs4core6errors5testss_27test_error_debug_formatting
FN:628,_RNvNtNtNtCs64AwlgGXCHI_10valknut_rs4core6errors5testss_27test_from_parse_float_error
FN:670,_RNvNtNtNtCs64AwlgGXCHI_10valknut_rs4core6errors5testss_28test_result_ext_with_context
FN:645,_RNvNtNtNtCs64AwlgGXCHI_10valknut_rs4core6errors5testss_28test_with_context_math_error
FN:683,_RNvNtNtNtCs64AwlgGXCHI_10valknut_rs4core6errors5testss_29test_error_display_formatting
FN:657,_RNvNtNtNtCs64AwlgGXCHI_10valknut_rs4core6errors5testss_38test_with_context_non_contextual_error
FN:408,_RINvXs5_NtNtCs64AwlgGXCHI_10valknut_rs4core6errorsINtNtCs66KPHxksi63_4core6result6ResultlNtNtNtCsiKSG5X70Gj7_3std2io5error5ErrorEINtB6_9ResultExtlE12with_contextNCNvNtB6_5testss_28test_result_ext_with_context0EBa_
FN:415,_RNvXs5_NtNtCs64AwlgGXCHI_10valknut_rs4core6errorsINtNtCs66KPHxksi63_4core6result6ResultlNtNtNtCsiKSG5X70Gj7_3std2io5error5ErrorEINtB5_9ResultExtlE7contextB9_
FN:281,_RINvMNtNtCs64AwlgGXCHI_10valknut_rs4core6errorsNtB3_12ValknutError10validationNtNtCs8Ty2CzGA6U3_5alloc6string6StringEB7_
FN:281,_RINvMNtNtCs64AwlgGXCHI_10valknut_rs4core6errorsNtB3_12ValknutError10validationReEB7_
FN:307,_RINvMNtNtCs64AwlgGXCHI_10valknut_rs4core6errorsNtB3_12ValknutError11unsupportedNtNtCs8Ty2CzGA6U3_5alloc6string6StringEB7_
FN:307,_RINvMNtNtCs64AwlgGXCHI_10valknut_rs4core6errorsNtB3_12ValknutError11unsupportedReEB7_
FN:204,_RINvMNtNtCs64AwlgGXCHI_10valknut_rs4core6errorsNtB3_12ValknutError12config_fieldNtNtCs8Ty2CzGA6U3_5alloc6string6StringB1g_EB7_
FN:204,_RINvMNtNtCs64AwlgGXCHI_10valknut_rs4core6errorsNtB3_12ValknutError12config_fieldReB1g_EB7_
FN:314,_RINvMNtNtCs64AwlgGXCHI_10valknut_rs4core6errorsNtB3_12ValknutError12with_contextNtNtCs8Ty2CzGA6U3_5alloc6string6StringEB7_
FN:314,_RINvMNtNtCs64AwlgGXCHI_10valknut_rs4core6errorsNtB3_12ValknutError12with_contextReEB7_
FN:248,_RINvMNtNtCs64AwlgGXCHI_10valknut_rs4core6errorsNtB3_12ValknutError17math_with_contextReB1l_EB7_
FN:291,_RINvMNtNtCs64AwlgGXCHI_10valknut_rs4core6errorsNtB3_12ValknutError19feature_unavailableReB1n_EB7_
FN:223,_RINvMNtNtCs64AwlgGXCHI_10valknut_rs4core6errorsNtB3_12ValknutError19parse_with_locationReB1n_B1n_EB7_
FN:188,_RINvMNtNtCs64AwlgGXCHI_10valknut_rs4core6errorsNtB3_12ValknutError2ioNtNtCs8Ty2CzGA6U3_5alloc6string6StringEB7_
FN:188,_RINvMNtNtCs64AwlgGXCHI_10valknut_rs4core6errorsNtB3_12ValknutError2ioReEB7_
FN:264,_RINvMNtNtCs64AwlgGXCHI_10valknut_rs4core6errorsNtB3_12ValknutError3lshReEB7_
FN:240,_RINvMNtNtCs64AwlgGXCHI_10valknut_rs4core6errorsNtB3_12ValknutError4mathReEB7_
FN:256,_RINvMNtNtCs64AwlgGXCHI_10valknut_rs4core6errorsNtB3_12ValknutError5graphReEB7_
FN:212,_RINvMNtNtCs64AwlgGXCHI_10valknut_rs4core6errorsNtB3_12ValknutError5parseNtNtCs8Ty2CzGA6U3_5alloc6string6StringB18_EB7_
FN:212,_RINvMNtNtCs64AwlgGXCHI_10valknut_rs4core6errorsNtB3_12ValknutError5parseReB18_EB7_
FN:212,_RINvMNtNtCs64AwlgGXCHI_10valknut_rs4core6errorsNtB3_12ValknutError5parseReNtNtCs8Ty2CzGA6U3_5alloc6string6StringEB7_
FN:196,_RINvMNtNtCs64AwlgGXCHI_10valknut_rs4core6errorsNtB3_12ValknutError6configNtNtCs8Ty2CzGA6U3_5alloc6string6StringEB7_
FN:196,_RINvMNtNtCs64AwlgGXCHI_10valknut_rs4core6errorsNtB3_12ValknutError6configReEB7_
FN:299,_RINvMNtNtCs64AwlgGXCHI_10valknut_rs4core6errorsNtB3_12ValknutError8internalReEB7_
FN:272,_RINvMNtNtCs64AwlgGXCHI_10valknut_rs4core6errorsNtB3_12ValknutError8pipelineReB1b_EB7_
FN:412,_RNCINvXs5_NtNtCs64AwlgGXCHI_10valknut_rs4core6errorsINtNtCs66KPHxksi63_4core6result6ResultlNtNtNtCsiKSG5X70Gj7_3std2io5error5ErrorEINtB8_9ResultExtlE12with_contextNCNvNtB8_5testss_28test_result_ext_with_context0E0Bc_
FN:416,_RNCNvXs5_NtNtCs64AwlgGXCHI_10valknut_rs4core6errorsINtNtCs66KPHxksi63_4core6result6ResultlNtNtNtCsiKSG5X70Gj7_3std2io5error5ErrorEINtB7_9ResultExtlE7context0Bb_
FN:334,_RNvXs0_NtNtCs64AwlgGXCHI_10valknut_rs4core6errorsNtB5_12ValknutErrorINtNtCs66KPHxksi63_4core7convert4FromNtNtCs6pyryjRuqOK_10serde_json5error5ErrorE4from
FN:344,_RNvXs1_NtNtCs64AwlgGXCHI_10valknut_rs4core6errorsNtB5_12ValknutErrorINtNtCs66KPHxksi63_4core7convert4FromNtNtCsc6nSc9dntMb_10serde_yaml5error5ErrorE4from
FN:354,_RNvXs2_NtNtCs64AwlgGXCHI_10valknut_rs4core6errorsNtB5_12ValknutErrorINtNtCs66KPHxksi63_4core7convert4FromNtNtNtB19_3num5error13ParseIntErrorE4from
FN:360,_RNvXs3_NtNtCs64AwlgGXCHI_10valknut_rs4core6errorsNtB5_12ValknutErrorINtNtCs66KPHxksi63_4core7convert4FromNtNtNtB19_3num7dec2flt15ParseFloatErrorE4from
FN:366,_RNvXs4_NtNtCs64AwlgGXCHI_10valknut_rs4core6errorsNtB5_12ValknutErrorINtNtCs66KPHxksi63_4core7convert4FromNtNtNtB19_3str5error9Utf8ErrorE4from
FN:328,_RNvXs_NtNtCs64AwlgGXCHI_10valknut_rs4core6errorsNtB4_12ValknutErrorINtNtCs66KPHxksi63_4core7convert4FromNtNtNtCsiKSG5X70Gj7_3std2io5error5ErrorE4from
FNDA:1,_RNCNvNtNtNtCs64AwlgGXCHI_10valknut_rs4core6errors5testss_28test_result_ext_with_context0B9_
FNDA:1,_RNvNtNtNtCs64AwlgGXCHI_10valknut_rs4core6errors5testss_14test_lsh_error
FNDA:1,_RNvNtNtNtCs64AwlgGXCHI_10valknut_rs4core6errors5testss_16test_graph_error
FNDA:1,_RNvNtNtNtCs64AwlgGXCHI_10valknut_rs4core6errors5testss_18test_from_io_error
FNDA:1,_RNvNtNtNtCs64AwlgGXCHI_10valknut_rs4core6errors5testss_19test_error_creation
FNDA:1,_RNvNtNtNtCs64AwlgGXCHI_10valknut_rs4core6errors5testss_19test_pipeline_error
FNDA:1,_RNvNtNtNtCs64AwlgGXCHI_10valknut_rs4core6errors5testss_20test_from_json_error
FNDA:1,_RNvNtNtNtCs64AwlgGXCHI_10valknut_rs4core6errors5testss_20test_from_utf8_error
FNDA:1,_RNvNtNtNtCs64AwlgGXCHI_10valknut_rs4core6errors5testss_20test_from_yaml_error
FNDA:1,_RNvNtNtNtCs64AwlgGXCHI_10valknut_rs4core6errors5testss_21test_result_extension
FNDA:1,_RNvNtNtNtCs64AwlgGXCHI_10valknut_rs4core6errors5testss_21test_validation_error
FNDA:1,_RNvNtNtNtCs64AwlgGXCHI_10valknut_rs4core6errors5testss_22test_io_error_creation
FNDA:1,_RNvNtNtNtCs64AwlgGXCHI_10valknut_rs4core6errors5testss_22test_math_with_context
FNDA:1,_RNvNtNtNtCs64AwlgGXCHI_10valknut_rs4core6errors5testss_22test_unsupported_error
FNDA:1,_RNvNtNtNtCs64AwlgGXCHI_10valknut_rs4core6errors5testss_23test_config_field_error
FNDA:1,_RNvNtNtNtCs64AwlgGXCHI_10valknut_rs4core6errors5testss_23test_error_with_context
FNDA:1,_RNvNtNtNtCs64AwlgGXCHI_10valknut_rs4core6errors5testss_24test_feature_unavailable
FNDA:1,_RNvNtNtNtCs64AwlgGXCHI_10valknut_rs4core6errors5testss_24test_parse_with_location
FNDA:1,_RNvNtNtNtCs64AwlgGXCHI_10valknut_rs4core6errors5testss_25test_from_parse_int_error
FNDA:1,_RNvNtNtNtCs64AwlgGXCHI_10valknut_rs4core6errors5testss_27test_error_debug_formatting
FNDA:1,_RNvNtNtNtCs64AwlgGXCHI_10valknut_rs4core6errors5testss_27test_from_parse_float_error
FNDA:1,_RNvNtNtNtCs64AwlgGXCHI_10valknut_rs4core6errors5testss_28test_result_ext_with_context
FNDA:1,_RNvNtNtNtCs64AwlgGXCHI_10valknut_rs4core6errors5testss_28test_with_context_math_error
FNDA:1,_RNvNtNtNtCs64AwlgGXCHI_10valknut_rs4core6errors5testss_29test_error_display_formatting
FNDA:1,_RNvNtNtNtCs64AwlgGXCHI_10valknut_rs4core6errors5testss_38test_with_context_non_contextual_error
FNDA:1,_RINvXs5_NtNtCs64AwlgGXCHI_10valknut_rs4core6errorsINtNtCs66KPHxksi63_4core6result6ResultlNtNtNtCsiKSG5X70Gj7_3std2io5error5ErrorEINtB6_9ResultExtlE12with_contextNCNvNtB6_5testss_28test_result_ext_with_context0EBa_
FNDA:1,_RNvXs5_NtNtCs64AwlgGXCHI_10valknut_rs4core6errorsINtNtCs66KPHxksi63_4core6result6ResultlNtNtNtCsiKSG5X70Gj7_3std2io5error5ErrorEINtB5_9ResultExtlE7contextB9_
FNDA:4,_RINvMNtNtCs64AwlgGXCHI_10valknut_rs4core6errorsNtB3_12ValknutError10validationNtNtCs8Ty2CzGA6U3_5alloc6string6StringEB7_
FNDA:2,_RINvMNtNtCs64AwlgGXCHI_10valknut_rs4core6errorsNtB3_12ValknutError10validationReEB7_
FNDA:2,_RINvMNtNtCs64AwlgGXCHI_10valknut_rs4core6errorsNtB3_12ValknutError11unsupportedNtNtCs8Ty2CzGA6U3_5alloc6string6StringEB7_
FNDA:1,_RINvMNtNtCs64AwlgGXCHI_10valknut_rs4core6errorsNtB3_12ValknutError11unsupportedReEB7_
FNDA:0,_RINvMNtNtCs64AwlgGXCHI_10valknut_rs4core6errorsNtB3_12ValknutError12config_fieldNtNtCs8Ty2CzGA6U3_5alloc6string6StringB1g_EB7_
FNDA:2,_RINvMNtNtCs64AwlgGXCHI_10valknut_rs4core6errorsNtB3_12ValknutError12config_fieldReB1g_EB7_
FNDA:1,_RINvMNtNtCs64AwlgGXCHI_10valknut_rs4core6errorsNtB3_12ValknutError12with_contextNtNtCs8Ty2CzGA6U3_5alloc6string6StringEB7_
FNDA:4,_RINvMNtNtCs64AwlgGXCHI_10valknut_rs4core6errorsNtB3_12ValknutError12with_contextReEB7_
FNDA:1,_RINvMNtNtCs64AwlgGXCHI_10valknut_rs4core6errorsNtB3_12ValknutError17math_with_contextReB1l_EB7_
FNDA:1,_RINvMNtNtCs64AwlgGXCHI_10valknut_rs4core6errorsNtB3_12ValknutError19feature_unavailableReB1n_EB7_
FNDA:2,_RINvMNtNtCs64AwlgGXCHI_10valknut_rs4core6errorsNtB3_12ValknutError19parse_with_locationReB1n_B1n_EB7_
FNDA:3,_RINvMNtNtCs64AwlgGXCHI_10valknut_rs4core6errorsNtB3_12ValknutError2ioNtNtCs8Ty2CzGA6U3_5alloc6string6StringEB7_
FNDA:4,_RINvMNtNtCs64AwlgGXCHI_10valknut_rs4core6errorsNtB3_12ValknutError2ioReEB7_
FNDA:1,_RINvMNtNtCs64AwlgGXCHI_10valknut_rs4core6errorsNtB3_12ValknutError3lshReEB7_
FNDA:1,_RINvMNtNtCs64AwlgGXCHI_10valknut_rs4core6errorsNtB3_12ValknutError4mathReEB7_
FNDA:1,_RINvMNtNtCs64AwlgGXCHI_10valknut_rs4core6errorsNtB3_12ValknutError5graphReEB7_
FNDA:0,_RINvMNtNtCs64AwlgGXCHI_10valknut_rs4core6errorsNtB3_12ValknutError5parseNtNtCs8Ty2CzGA6U3_5alloc6string6StringB18_EB7_
FNDA:1,_RINvMNtNtCs64AwlgGXCHI_10valknut_rs4core6errorsNtB3_12ValknutError5parseReB18_EB7_
FNDA:1,_RINvMNtNtCs64AwlgGXCHI_10valknut_rs4core6errorsNtB3_12ValknutError5parseReNtNtCs8Ty2CzGA6U3_5alloc6string6StringEB7_
FNDA:0,_RINvMNtNtCs64AwlgGXCHI_10valknut_rs4core6errorsNtB3_12ValknutError6configNtNtCs8Ty2CzGA6U3_5alloc6string6StringEB7_
FNDA:2,_RINvMNtNtCs64AwlgGXCHI_10valknut_rs4core6errorsNtB3_12ValknutError6configReEB7_
FNDA:1,_RINvMNtNtCs64AwlgGXCHI_10valknut_rs4core6errorsNtB3_12ValknutError8internalReEB7_
FNDA:1,_RINvMNtNtCs64AwlgGXCHI_10valknut_rs4core6errorsNtB3_12ValknutError8pipelineReB1b_EB7_
FNDA:1,_RNCINvXs5_NtNtCs64AwlgGXCHI_10valknut_rs4core6errorsINtNtCs66KPHxksi63_4core6result6ResultlNtNtNtCsiKSG5X70Gj7_3std2io5error5ErrorEINtB8_9ResultExtlE12with_contextNCNvNtB8_5testss_28test_result_ext_with_context0E0Bc_
FNDA:1,_RNCNvXs5_NtNtCs64AwlgGXCHI_10valknut_rs4core6errorsINtNtCs66KPHxksi63_4core6result6ResultlNtNtNtCsiKSG5X70Gj7_3std2io5error5ErrorEINtB7_9ResultExtlE7context0Bb_
FNDA:1,_RNvXs0_NtNtCs64AwlgGXCHI_10valknut_rs4core6errorsNtB5_12ValknutErrorINtNtCs66KPHxksi63_4core7convert4FromNtNtCs6pyryjRuqOK_10serde_json5error5ErrorE4from
FNDA:1,_RNvXs1_NtNtCs64AwlgGXCHI_10valknut_rs4core6errorsNtB5_12ValknutErrorINtNtCs66KPHxksi63_4core7convert4FromNtNtCsc6nSc9dntMb_10serde_yaml5error5ErrorE4from
FNDA:1,_RNvXs2_NtNtCs64AwlgGXCHI_10valknut_rs4core6errorsNtB5_12ValknutErrorINtNtCs66KPHxksi63_4core7convert4FromNtNtNtB19_3num5error13ParseIntErrorE4from
FNDA:1,_RNvXs3_NtNtCs64AwlgGXCHI_10valknut_rs4core6errorsNtB5_12ValknutErrorINtNtCs66KPHxksi63_4core7convert4FromNtNtNtB19_3num7dec2flt15ParseFloatErrorE4from
FNDA:1,_RNvXs4_NtNtCs64AwlgGXCHI_10valknut_rs4core6errorsNtB5_12ValknutErrorINtNtCs66KPHxksi63_4core7convert4FromNtNtNtB19_3str5error9Utf8ErrorE4from
FNDA:3,_RNvXs_NtNtCs64AwlgGXCHI_10valknut_rs4core6errorsNtB4_12ValknutErrorINtNtCs66KPHxksi63_4core7convert4FromNtNtNtCsiKSG5X70Gj7_3std2io5error5ErrorE4from
FNF:50
FNH:50
DA:188,7
DA:189,7
DA:190,7
DA:191,7
DA:192,7
DA:193,7
DA:196,2
DA:197,2
DA:198,2
DA:199,2
DA:200,2
DA:201,2
DA:204,2
DA:205,2
DA:206,2
DA:207,2
DA:208,2
DA:209,2
DA:212,2
DA:213,2
DA:214,2
DA:215,2
DA:216,2
DA:217,2
DA:218,2
DA:219,2
DA:220,2
DA:223,2
DA:224,2
DA:225,2
DA:226,2
DA:227,2
DA:228,2
DA:229,2
DA:230,2
DA:231,2
DA:232,2
DA:233,2
DA:234,2
DA:235,2
DA:236,2
DA:237,2
DA:240,1
DA:241,1
DA:242,1
DA:243,1
DA:244,1
DA:245,1
DA:248,1
DA:249,1
DA:250,1
DA:251,1
DA:252,1
DA:253,1
DA:256,1
DA:257,1
DA:258,1
DA:259,1
DA:260,1
DA:261,1
DA:264,1
DA:265,1
DA:266,1
DA:267,1
DA:268,1
DA:269,1
DA:272,1
DA:273,1
DA:274,1
DA:275,1
DA:276,1
DA:277,1
DA:278,1
DA:281,6
DA:282,6
DA:283,6
DA:284,6
DA:285,6
DA:286,6
DA:287,6
DA:288,6
DA:291,1
DA:292,1
DA:293,1
DA:294,1
DA:295,1
DA:296,1
DA:299,1
DA:300,1
DA:301,1
DA:302,1
DA:303,1
DA:304,1
DA:307,3
DA:308,3
DA:309,3
DA:310,3
DA:311,3
DA:314,5
DA:315,5
DA:316,1
DA:317,2
DA:318,2
DA:319,2
DA:320,3
DA:322,5
DA:323,5
DA:328,3
DA:329,3
DA:330,3
DA:334,1
DA:335,1
DA:336,1
DA:337,1
DA:338,1
DA:339,1
DA:340,1
DA:344,1
DA:345,1
DA:346,1
DA:347,1
DA:348,1
DA:349,1
DA:350,1
DA:354,1
DA:355,1
DA:356,1
DA:360,1
DA:361,1
DA:362,1
DA:366,1
DA:367,1
DA:368,1
DA:408,1
DA:409,1
DA:410,1
DA:412,1
DA:413,1
DA:415,1
DA:416,1
DA:417,1
DA:426,1
DA:427,1
DA:428,1
DA:430,1
DA:431,1
DA:432,1
DA:435,1
DA:436,1
DA:437,1
DA:439,1
DA:440,1
DA:442,0
DA:444,1
DA:447,1
DA:448,1
DA:449,1
DA:451,1
DA:452,1
DA:453,1
DA:456,1
DA:457,1
DA:458,1
DA:460,1
DA:461,1
DA:462,1
DA:464,0
DA:466,1
DA:469,1
DA:470,1
DA:472,1
DA:473,1
DA:474,1
DA:476,0
DA:478,1
DA:481,1
DA:482,1
DA:486,1
DA:487,1
DA:490,1
DA:491,1
DA:492,1
DA:493,1
DA:494,1
DA:495,1
DA:497,0
DA:499,1
DA:502,1
DA:503,1
DA:505,1
DA:506,1
DA:507,1
DA:509,0
DA:511,1
DA:514,1
DA:515,1
DA:517,1
DA:518,1
DA:519,1
DA:521,0
DA:523,1
DA:526,1
DA:527,1
DA:529,1
DA:530,1
DA:531,1
DA:533,0
DA:535,1
DA:538,1
DA:539,1
DA:541,1
DA:542,1
DA:543,1
DA:544,1
DA:546,0
DA:548,1
DA:551,1
DA:552,1
DA:554,1
DA:555,1
DA:556,1
DA:557,1
DA:558,1
DA:560,0
DA:562,1
DA:565,1
DA:566,1
DA:568,1
DA:569,1
DA:570,1
DA:572,0
DA:574,1
DA:577,1
DA:578,1
DA:580,1
DA:581,1
DA:583,0
DA:585,1
DA:588,1
DA:589,1
DA:590,1
DA:592,1
DA:593,1
DA:596,1
DA:597,1
DA:598,1
DA:600,1
DA:601,1
DA:603,0
DA:605,1
DA:608,1
DA:609,1
DA:610,1
DA:612,1
DA:613,1
DA:615,0
DA:617,1
DA:620,1
DA:621,1
DA:622,1
DA:624,1
DA:625,1
DA:628,1
DA:629,1
DA:630,1
DA:632,1
DA:633,1
DA:636,1
DA:637,1
DA:638,1
DA:639,1
DA:641,1
DA:642,1
DA:645,1
DA:646,1
DA:647,1
DA:649,1
DA:650,1
DA:652,0
DA:654,1
DA:657,1
DA:658,1
DA:659,1
DA:662,1
DA:663,1
DA:665,0
DA:667,1
DA:670,1
DA:671,1
DA:672,1
DA:674,1
DA:675,1
DA:678,1
DA:679,1
DA:680,1
DA:683,1
DA:684,1
DA:685,1
DA:686,1
DA:687,1
DA:688,1
DA:691,1
DA:692,1
DA:693,1
DA:694,1
DA:695,1
DA:696,1
DA:697,1
BRF:0
BRH:0
LF:311
LH:296
end_of_record
SF:/home/nathan/Projects/valknut/src/core/featureset.rs
FN:61,_RNvMNtNtCs64AwlgGXCHI_10valknut_rs4core10featuresetNtB2_17FeatureDefinition10with_range
FN:101,_RNvMNtNtCs64AwlgGXCHI_10valknut_rs4core10featuresetNtB2_17FeatureDefinition11clamp_value
FN:68,_RNvMNtNtCs64AwlgGXCHI_10valknut_rs4core10featuresetNtB2_17FeatureDefinition12with_default
FN:80,_RNvMNtNtCs64AwlgGXCHI_10valknut_rs4core10featuresetNtB2_17FeatureDefinition14is_valid_value
FN:272,_RNvMs0_NtNtCs64AwlgGXCHI_10valknut_rs4core10featuresetNtB5_21RefactoringSuggestion13with_location
FN:284,_RNvMs0_NtNtCs64AwlgGXCHI_10valknut_rs4core10featuresetNtB5_21RefactoringSuggestion16is_high_priority
FN:289,_RNvMs0_NtNtCs64AwlgGXCHI_10valknut_rs4core10featuresetNtB5_21RefactoringSuggestion18is_high_confidence
FN:398,_RNvMs1_NtNtCs64AwlgGXCHI_10valknut_rs4core10featuresetNtB5_10CodeEntity10line_count
FN:381,_RNvMs1_NtNtCs64AwlgGXCHI_10valknut_rs4core10featuresetNtB5_10CodeEntity15with_line_range
FN:438,_RNvMs2_NtNtCs64AwlgGXCHI_10valknut_rs4core10featuresetNtB5_17ExtractionContext10add_entity
FN:443,_RNvMs2_NtNtCs64AwlgGXCHI_10valknut_rs4core10featuresetNtB5_17ExtractionContext10get_entity
FN:472,_RNvMs3_NtNtCs64AwlgGXCHI_10valknut_rs4core10featuresetNtB5_20BaseFeatureExtractor11add_feature
FN:555,_RNvMs4_NtNtCs64AwlgGXCHI_10valknut_rs4core10featuresetNtB5_24FeatureExtractorRegistry25get_compatible_extractors
FN:569,_RNvMs4_NtNtCs64AwlgGXCHI_10valknut_rs4core10featuresetNtB5_24FeatureExtractorRegistry27get_all_feature_definitions
FN:528,_RNvMs4_NtNtCs64AwlgGXCHI_10valknut_rs4core10featuresetNtB5_24FeatureExtractorRegistry3new
FN:162,_RNvMs_NtNtCs64AwlgGXCHI_10valknut_rs4core10featuresetNtB4_13FeatureVector11get_feature
FN:189,_RNvMs_NtNtCs64AwlgGXCHI_10valknut_rs4core10featuresetNtB4_13FeatureVector11has_feature
FN:184,_RNvMs_NtNtCs64AwlgGXCHI_10valknut_rs4core10featuresetNtB4_13FeatureVector13feature_count
FN:194,_RNvMs_NtNtCs64AwlgGXCHI_10valknut_rs4core10featuresetNtB4_13FeatureVector13feature_names
FN:178,_RNvMs_NtNtCs64AwlgGXCHI_10valknut_rs4core10featuresetNtB4_13FeatureVector14add_suggestion
FN:204,_RNvMs_NtNtCs64AwlgGXCHI_10valknut_rs4core10featuresetNtB4_13FeatureVector17cosine_similarity
FN:167,_RNvMs_NtNtCs64AwlgGXCHI_10valknut_rs4core10featuresetNtB4_13FeatureVector22get_normalized_feature
FN:199,_RNvMs_NtNtCs64AwlgGXCHI_10valknut_rs4core10featuresetNtB4_13FeatureVector7l2_norm
FN:506,_RNvXsi_NtNtCs64AwlgGXCHI_10valknut_rs4core10featuresetNtB5_20BaseFeatureExtractorNtB5_16FeatureExtractor8features
FN:477,_RINvMs3_NtNtCs64AwlgGXCHI_10valknut_rs4core10featuresetNtB6_20BaseFeatureExtractor12safe_extractpEBa_
FN:578,_RNCNvMs4_NtNtCs64AwlgGXCHI_10valknut_rs4core10featuresetNtB7_24FeatureExtractorRegistry20extract_all_features0Bb_
FN:74,_RNvMNtNtCs64AwlgGXCHI_10valknut_rs4core10featuresetNtB2_17FeatureDefinition13with_polarity
FN:545,_RNvMs4_NtNtCs64AwlgGXCHI_10valknut_rs4core10featuresetNtB5_24FeatureExtractorRegistry13get_extractor
FN:550,_RNvMs4_NtNtCs64AwlgGXCHI_10valknut_rs4core10featuresetNtB5_24FeatureExtractorRegistry18get_all_extractors
FN:574,_RNvMs4_NtNtCs64AwlgGXCHI_10valknut_rs4core10featuresetNtB5_24FeatureExtractorRegistry20extract_all_features
FN:564,_RNvMs4_NtNtCs64AwlgGXCHI_10valknut_rs4core10featuresetNtB5_24FeatureExtractorRegistry22get_feature_definition
FN:533,_RNvMs4_NtNtCs64AwlgGXCHI_10valknut_rs4core10featuresetNtB5_24FeatureExtractorRegistry8register
FN:502,_RNvXsi_NtNtCs64AwlgGXCHI_10valknut_rs4core10featuresetNtB5_20BaseFeatureExtractorNtB5_16FeatureExtractor4name
FN:510,_RNvXsi_NtNtCs64AwlgGXCHI_10valknut_rs4core10featuresetNtB5_20BaseFeatureExtractorNtB5_16FeatureExtractor7extract
FN:310,_RNvYpNtNtNtCs64AwlgGXCHI_10valknut_rs4core10featureset16FeatureExtractor15supports_entityB9_
FN:638,_RNvNtNtNtCs64AwlgGXCHI_10valknut_rs4core10featureset5testss_19test_feature_vector
FN:650,_RNvNtNtNtCs64AwlgGXCHI_10valknut_rs4core10featureset5testss_22test_cosine_similarity
FN:832,_RNvNtNtNtCs64AwlgGXCHI_10valknut_rs4core10featureset5testss_23test_extraction_context
FN:615,_RNvNtNtNtCs64AwlgGXCHI_10valknut_rs4core10featureset5testss_23test_feature_definition
FN:627,_RNvNtNtNtCs64AwlgGXCHI_10valknut_rs4core10featureset5testss_23test_feature_validation
FN:863,_RNvNtNtNtCs64AwlgGXCHI_10valknut_rs4core10featureset5testss_27test_code_entity_line_count
FN:714,_RNvNtNtNtCs64AwlgGXCHI_10valknut_rs4core10featureset5testss_27test_feature_vector_l2_norm
FN:664,_RNvNtNtNtCs64AwlgGXCHI_10valknut_rs4core10featureset5testss_27test_refactoring_suggestion
FN:689,_RNvNtNtNtCs64AwlgGXCHI_10valknut_rs4core10featureset5testss_28test_feature_vector_metadata
FN:853,_RNvNtNtNtCs64AwlgGXCHI_10valknut_rs4core10featureset5testss_29test_code_entity_add_property
FN:784,_RNvNtNtNtCs64AwlgGXCHI_10valknut_rs4core10featureset5testss_30test_feature_polarity_variants
FN:699,_RNvNtNtNtCs64AwlgGXCHI_10valknut_rs4core10featureset5testss_31test_feature_vector_suggestions
FN:845,_RNvNtNtNtCs64AwlgGXCHI_10valknut_rs4core10featureset5testss_33test_code_entity_with_source_code
FN:804,_RNvNtNtNtCs64AwlgGXCHI_10valknut_rs4core10featureset5testss_33test_cosine_similarity_orthogonal
FN:734,_RNvNtNtNtCs64AwlgGXCHI_10valknut_rs4core10featureset5testss_33test_feature_vector_feature_names
FN:678,_RNvNtNtNtCs64AwlgGXCHI_10valknut_rs4core10featureset5testss_35test_feature_definition_clamp_value
FN:795,_RNvNtNtNtCs64AwlgGXCHI_10valknut_rs4core10featureset5testss_36test_cosine_similarity_empty_vectors
FN:775,_RNvNtNtNtCs64AwlgGXCHI_10valknut_rs4core10featureset5testss_37test_feature_definition_with_polarity
FN:724,_RNvNtNtNtCs64AwlgGXCHI_10valknut_rs4core10featureset5testss_39test_feature_vector_normalized_features
FN:818,_RNvNtNtNtCs64AwlgGXCHI_10valknut_rs4core10featureset5testss_40test_feature_extractor_validate_features
FN:762,_RNvNtNtNtCs64AwlgGXCHI_10valknut_rs4core10featureset5testss_40test_refactoring_suggestion_with_context
FN:748,_RNvNtNtNtCs64AwlgGXCHI_10valknut_rs4core10featureset5testss_41test_refactoring_suggestion_with_location
FN:871,_RNvNtNtNtCs64AwlgGXCHI_10valknut_rs4core10featureset5testss_57test_feature_extractor_registry_get_compatible_extractors
FN:880,_RNvNtNtNtCs64AwlgGXCHI_10valknut_rs4core10featureset5testss_59test_feature_extractor_registry_get_all_feature_definitions
FN:45,_RINvMNtNtCs64AwlgGXCHI_10valknut_rs4core10featuresetNtB3_17FeatureDefinition3newReB1g_EB7_
FN:278,_RINvMs0_NtNtCs64AwlgGXCHI_10valknut_rs4core10featuresetNtB6_21RefactoringSuggestion12with_contextReEBa_
FN:255,_RINvMs0_NtNtCs64AwlgGXCHI_10valknut_rs4core10featuresetNtB6_21RefactoringSuggestion3newReB1n_EBa_
FN:393,_RINvMs1_NtNtCs64AwlgGXCHI_10valknut_rs4core10featuresetNtB6_10CodeEntity12add_propertyNtNtCs8Ty2CzGA6U3_5alloc6string6StringEBa_
FN:393,_RINvMs1_NtNtCs64AwlgGXCHI_10valknut_rs4core10featuresetNtB6_10CodeEntity12add_propertyReEBa_
FN:387,_RINvMs1_NtNtCs64AwlgGXCHI_10valknut_rs4core10featuresetNtB6_10CodeEntity16with_source_codeNtNtCs8Ty2CzGA6U3_5alloc6string6StringEBa_
FN:387,_RINvMs1_NtNtCs64AwlgGXCHI_10valknut_rs4core10featuresetNtB6_10CodeEntity16with_source_codeReEBa_
FN:363,_RINvMs1_NtNtCs64AwlgGXCHI_10valknut_rs4core10featuresetNtB6_10CodeEntity3newNtNtCs8Ty2CzGA6U3_5alloc6string6StringB1c_B1c_B1c_EBa_
FN:363,_RINvMs1_NtNtCs64AwlgGXCHI_10valknut_rs4core10featuresetNtB6_10CodeEntity3newReB1c_B1c_B1c_EBa_
FN:448,_RINvMs2_NtNtCs64AwlgGXCHI_10valknut_rs4core10featuresetNtB6_17ExtractionContext16add_context_dataReEBa_
FN:425,_RINvMs2_NtNtCs64AwlgGXCHI_10valknut_rs4core10featuresetNtB6_17ExtractionContext3newNtNtCs8Ty2CzGA6U3_5alloc6string6StringEBa_
FN:425,_RINvMs2_NtNtCs64AwlgGXCHI_10valknut_rs4core10featuresetNtB6_17ExtractionContext3newReEBa_
FN:464,_RINvMs3_NtNtCs64AwlgGXCHI_10valknut_rs4core10featuresetNtB6_20BaseFeatureExtractor3newReEBa_
FN:156,_RINvMs_NtNtCs64AwlgGXCHI_10valknut_rs4core10featuresetNtB5_13FeatureVector11add_featureReEB9_
FN:172,_RINvMs_NtNtCs64AwlgGXCHI_10valknut_rs4core10featuresetNtB5_13FeatureVector12add_metadataReEB9_
FN:145,_RINvMs_NtNtCs64AwlgGXCHI_10valknut_rs4core10featuresetNtB5_13FeatureVector3newReEB9_
FN:558,_RNCNvMs4_NtNtCs64AwlgGXCHI_10valknut_rs4core10featuresetNtB7_24FeatureExtractorRegistry25get_compatible_extractors0Bb_
FN:200,_RNCNvMs_NtNtCs64AwlgGXCHI_10valknut_rs4core10featuresetNtB6_13FeatureVector7l2_norm0Ba_
FN:317,_RNCNvYNtNtNtCs64AwlgGXCHI_10valknut_rs4core10featureset20BaseFeatureExtractorNtB6_16FeatureExtractor22get_feature_definition0Ba_
FN:321,_RNvYNtNtNtCs64AwlgGXCHI_10valknut_rs4core10featureset20BaseFeatureExtractorNtB4_16FeatureExtractor17validate_featuresB8_
FN:316,_RNvYNtNtNtCs64AwlgGXCHI_10valknut_rs4core10featureset20BaseFeatureExtractorNtB4_16FeatureExtractor22get_feature_definitionB8_
FNDA:30,_RNvMNtNtCs64AwlgGXCHI_10valknut_rs4core10featuresetNtB2_17FeatureDefinition10with_range
FNDA:4,_RNvMNtNtCs64AwlgGXCHI_10valknut_rs4core10featuresetNtB2_17FeatureDefinition11clamp_value
FNDA:27,_RNvMNtNtCs64AwlgGXCHI_10valknut_rs4core10featuresetNtB2_17FeatureDefinition12with_default
FNDA:5,_RNvMNtNtCs64AwlgGXCHI_10valknut_rs4core10featuresetNtB2_17FeatureDefinition14is_valid_value
FNDA:1,_RNvMs0_NtNtCs64AwlgGXCHI_10valknut_rs4core10featuresetNtB5_21RefactoringSuggestion13with_location
FNDA:1,_RNvMs0_NtNtCs64AwlgGXCHI_10valknut_rs4core10featuresetNtB5_21RefactoringSuggestion16is_high_priority
FNDA:1,_RNvMs0_NtNtCs64AwlgGXCHI_10valknut_rs4core10featuresetNtB5_21RefactoringSuggestion18is_high_confidence
FNDA:1,_RNvMs1_NtNtCs64AwlgGXCHI_10valknut_rs4core10featuresetNtB5_10CodeEntity10line_count
FNDA:6,_RNvMs1_NtNtCs64AwlgGXCHI_10valknut_rs4core10featuresetNtB5_10CodeEntity15with_line_range
FNDA:1,_RNvMs2_NtNtCs64AwlgGXCHI_10valknut_rs4core10featuresetNtB5_17ExtractionContext10add_entity
FNDA:1,_RNvMs2_NtNtCs64AwlgGXCHI_10valknut_rs4core10featuresetNtB5_17ExtractionContext10get_entity
FNDA:1,_RNvMs3_NtNtCs64AwlgGXCHI_10valknut_rs4core10featuresetNtB5_20BaseFeatureExtractor11add_feature
FNDA:1,_RNvMs4_NtNtCs64AwlgGXCHI_10valknut_rs4core10featuresetNtB5_24FeatureExtractorRegistry25get_compatible_extractors
FNDA:1,_RNvMs4_NtNtCs64AwlgGXCHI_10valknut_rs4core10featuresetNtB5_24FeatureExtractorRegistry27get_all_feature_definitions
FNDA:2,_RNvMs4_NtNtCs64AwlgGXCHI_10valknut_rs4core10featuresetNtB5_24FeatureExtractorRegistry3new
FNDA:1,_RNvMs_NtNtCs64AwlgGXCHI_10valknut_rs4core10featuresetNtB4_13FeatureVector11get_feature
FNDA:2,_RNvMs_NtNtCs64AwlgGXCHI_10valknut_rs4core10featuresetNtB4_13FeatureVector11has_feature
FNDA:1,_RNvMs_NtNtCs64AwlgGXCHI_10valknut_rs4core10featuresetNtB4_13FeatureVector13feature_count
FNDA:1,_RNvMs_NtNtCs64AwlgGXCHI_10valknut_rs4core10featuresetNtB4_13FeatureVector13feature_names
FNDA:1,_RNvMs_NtNtCs64AwlgGXCHI_10valknut_rs4core10featuresetNtB4_13FeatureVector14add_suggestion
FNDA:3,_RNvMs_NtNtCs64AwlgGXCHI_10valknut_rs4core10featuresetNtB4_13FeatureVector17cosine_similarity
FNDA:2,_RNvMs_NtNtCs64AwlgGXCHI_10valknut_rs4core10featuresetNtB4_13FeatureVector22get_normalized_feature
FNDA:1,_RNvMs_NtNtCs64AwlgGXCHI_10valknut_rs4core10featuresetNtB4_13FeatureVector7l2_norm
FNDA:2,_RNvXsi_NtNtCs64AwlgGXCHI_10valknut_rs4core10featuresetNtB5_20BaseFeatureExtractorNtB5_16FeatureExtractor8features
FNDA:0,_RINvMs3_NtNtCs64AwlgGXCHI_10valknut_rs4core10featuresetNtB6_20BaseFeatureExtractor12safe_extractpEBa_
FNDA:0,_RNCNvMs4_NtNtCs64AwlgGXCHI_10valknut_rs4core10featuresetNtB7_24FeatureExtractorRegistry20extract_all_features0Bb_
FNDA:0,_RNvMNtNtCs64AwlgGXCHI_10valknut_rs4core10featuresetNtB2_17FeatureDefinition13with_polarity
FNDA:0,_RNvMs4_NtNtCs64AwlgGXCHI_10valknut_rs4core10featuresetNtB5_24FeatureExtractorRegistry13get_extractor
FNDA:0,_RNvMs4_NtNtCs64AwlgGXCHI_10valknut_rs4core10featuresetNtB5_24FeatureExtractorRegistry18get_all_extractors
FNDA:0,_RNvMs4_NtNtCs64AwlgGXCHI_10valknut_rs4core10featuresetNtB5_24FeatureExtractorRegistry20extract_all_features
FNDA:0,_RNvMs4_NtNtCs64AwlgGXCHI_10valknut_rs4core10featuresetNtB5_24FeatureExtractorRegistry22get_feature_definition
FNDA:0,_RNvMs4_NtNtCs64AwlgGXCHI_10valknut_rs4core10featuresetNtB5_24FeatureExtractorRegistry8register
FNDA:0,_RNvXsi_NtNtCs64AwlgGXCHI_10valknut_rs4core10featuresetNtB5_20BaseFeatureExtractorNtB5_16FeatureExtractor4name
FNDA:0,_RNvXsi_NtNtCs64AwlgGXCHI_10valknut_rs4core10featuresetNtB5_20BaseFeatureExtractorNtB5_16FeatureExtractor7extract
FNDA:0,_RNvYpNtNtNtCs64AwlgGXCHI_10valknut_rs4core10featureset16FeatureExtractor15supports_entityB9_
FNDA:1,_RNvNtNtNtCs64AwlgGXCHI_10valknut_rs4core10featureset5testss_19test_feature_vector
FNDA:1,_RNvNtNtNtCs64AwlgGXCHI_10valknut_rs4core10featureset5testss_22test_cosine_similarity
FNDA:1,_RNvNtNtNtCs64AwlgGXCHI_10valknut_rs4core10featureset5testss_23test_extraction_context
FNDA:1,_RNvNtNtNtCs64AwlgGXCHI_10valknut_rs4core10featureset5testss_23test_feature_definition
FNDA:1,_RNvNtNtNtCs64AwlgGXCHI_10valknut_rs4core10featureset5testss_23test_feature_validation
FNDA:1,_RNvNtNtNtCs64AwlgGXCHI_10valknut_rs4core10featureset5testss_27test_code_entity_line_count
FNDA:1,_RNvNtNtNtCs64AwlgGXCHI_10valknut_rs4core10featureset5testss_27test_feature_vector_l2_norm
FNDA:1,_RNvNtNtNtCs64AwlgGXCHI_10valknut_rs4core10featureset5testss_27test_refactoring_suggestion
FNDA:1,_RNvNtNtNtCs64AwlgGXCHI_10valknut_rs4core10featureset5testss_28test_feature_vector_metadata
FNDA:1,_RNvNtNtNtCs64AwlgGXCHI_10valknut_rs4core10featureset5testss_29test_code_entity_add_property
FNDA:1,_RNvNtNtNtCs64AwlgGXCHI_10valknut_rs4core10featureset5testss_30test_feature_polarity_variants
FNDA:1,_RNvNtNtNtCs64AwlgGXCHI_10valknut_rs4core10featureset5testss_31test_feature_vector_suggestions
FNDA:1,_RNvNtNtNtCs64AwlgGXCHI_10valknut_rs4core10featureset5testss_33test_code_entity_with_source_code
FNDA:1,_RNvNtNtNtCs64AwlgGXCHI_10valknut_rs4core10featureset5testss_33test_cosine_similarity_orthogonal
FNDA:1,_RNvNtNtNtCs64AwlgGXCHI_10valknut_rs4core10featureset5testss_33test_feature_vector_feature_names
FNDA:1,_RNvNtNtNtCs64AwlgGXCHI_10valknut_rs4core10featureset5testss_35test_feature_definition_clamp_value
FNDA:1,_RNvNtNtNtCs64AwlgGXCHI_10valknut_rs4core10featureset5testss_36test_cosine_similarity_empty_vectors
FNDA:1,_RNvNtNtNtCs64AwlgGXCHI_10valknut_rs4core10featureset5testss_37test_feature_definition_with_polarity
FNDA:1,_RNvNtNtNtCs64AwlgGXCHI_10valknut_rs4core10featureset5testss_39test_feature_vector_normalized_features
FNDA:1,_RNvNtNtNtCs64AwlgGXCHI_10valknut_rs4core10featureset5testss_40test_feature_extractor_validate_features
FNDA:1,_RNvNtNtNtCs64AwlgGXCHI_10valknut_rs4core10featureset5testss_40test_refactoring_suggestion_with_context
FNDA:1,_RNvNtNtNtCs64AwlgGXCHI_10valknut_rs4core10featureset5testss_41test_refactoring_suggestion_with_location
FNDA:1,_RNvNtNtNtCs64AwlgGXCHI_10valknut_rs4core10featureset5testss_57test_feature_extractor_registry_get_compatible_extractors
FNDA:1,_RNvNtNtNtCs64AwlgGXCHI_10valknut_rs4core10featureset5testss_59test_feature_extractor_registry_get_all_feature_definitions
FNDA:192,_RINvMNtNtCs64AwlgGXCHI_10valknut_rs4core10featuresetNtB3_17FeatureDefinition3newReB1g_EB7_
FNDA:1,_RINvMs0_NtNtCs64AwlgGXCHI_10valknut_rs4core10featuresetNtB6_21RefactoringSuggestion12with_contextReEBa_
FNDA:4,_RINvMs0_NtNtCs64AwlgGXCHI_10valknut_rs4core10featuresetNtB6_21RefactoringSuggestion3newReB1n_EBa_
FNDA:5,_RINvMs1_NtNtCs64AwlgGXCHI_10valknut_rs4core10featuresetNtB6_10CodeEntity12add_propertyNtNtCs8Ty2CzGA6U3_5alloc6string6StringEBa_
FNDA:2,_RINvMs1_NtNtCs64AwlgGXCHI_10valknut_rs4core10featuresetNtB6_10CodeEntity12add_propertyReEBa_
FNDA:5,_RINvMs1_NtNtCs64AwlgGXCHI_10valknut_rs4core10featuresetNtB6_10CodeEntity16with_source_codeNtNtCs8Ty2CzGA6U3_5alloc6string6StringEBa_
FNDA:3,_RINvMs1_NtNtCs64AwlgGXCHI_10valknut_rs4core10featuresetNtB6_10CodeEntity16with_source_codeReEBa_
FNDA:7,_RINvMs1_NtNtCs64AwlgGXCHI_10valknut_rs4core10featuresetNtB6_10CodeEntity3newNtNtCs8Ty2CzGA6U3_5alloc6string6StringB1c_B1c_B1c_EBa_
FNDA:10,_RINvMs1_NtNtCs64AwlgGXCHI_10valknut_rs4core10featuresetNtB6_10CodeEntity3newReB1c_B1c_B1c_EBa_
FNDA:1,_RINvMs2_NtNtCs64AwlgGXCHI_10valknut_rs4core10featuresetNtB6_17ExtractionContext16add_context_dataReEBa_
FNDA:1,_RINvMs2_NtNtCs64AwlgGXCHI_10valknut_rs4core10featuresetNtB6_17ExtractionContext3newNtNtCs8Ty2CzGA6U3_5alloc6string6StringEBa_
FNDA:4,_RINvMs2_NtNtCs64AwlgGXCHI_10valknut_rs4core10featuresetNtB6_17ExtractionContext3newReEBa_
FNDA:1,_RINvMs3_NtNtCs64AwlgGXCHI_10valknut_rs4core10featuresetNtB6_20BaseFeatureExtractor3newReEBa_
FNDA:55,_RINvMs_NtNtCs64AwlgGXCHI_10valknut_rs4core10featuresetNtB5_13FeatureVector11add_featureReEB9_
FNDA:2,_RINvMs_NtNtCs64AwlgGXCHI_10valknut_rs4core10featuresetNtB5_13FeatureVector12add_metadataReEB9_
FNDA:38,_RINvMs_NtNtCs64AwlgGXCHI_10valknut_rs4core10featuresetNtB5_13FeatureVector3newReEB9_
FNDA:0,_RNCNvMs4_NtNtCs64AwlgGXCHI_10valknut_rs4core10featuresetNtB7_24FeatureExtractorRegistry25get_compatible_extractors0Bb_
FNDA:2,_RNCNvMs_NtNtCs64AwlgGXCHI_10valknut_rs4core10featuresetNtB6_13FeatureVector7l2_norm0Ba_
FNDA:2,_RNCNvYNtNtNtCs64AwlgGXCHI_10valknut_rs4core10featureset20BaseFeatureExtractorNtB6_16FeatureExtractor22get_feature_definition0Ba_
FNDA:1,_RNvYNtNtNtCs64AwlgGXCHI_10valknut_rs4core10featureset20BaseFeatureExtractorNtB4_16FeatureExtractor17validate_featuresB8_
FNDA:2,_RNvYNtNtNtCs64AwlgGXCHI_10valknut_rs4core10featureset20BaseFeatureExtractorNtB4_16FeatureExtractor22get_feature_definitionB8_
FNF:76
FNH:64
DA:45,192
DA:46,192
DA:47,192
DA:48,192
DA:49,192
DA:50,192
DA:51,192
DA:52,192
DA:53,192
DA:54,192
DA:55,192
DA:56,192
DA:57,192
DA:58,192
DA:61,30
DA:62,30
DA:63,30
DA:64,30
DA:65,30
DA:68,27
DA:69,27
DA:70,27
DA:71,27
DA:74,0
DA:75,0
DA:76,0
DA:77,0
DA:80,5
DA:81,5
DA:82,1
DA:83,4
DA:85,4
DA:86,4
DA:87,1
DA:88,3
DA:89,0
DA:91,3
DA:92,3
DA:93,1
DA:94,2
DA:95,0
DA:97,2
DA:98,5
DA:101,4
DA:102,4
DA:103,1
DA:104,3
DA:106,3
DA:108,3
DA:109,3
DA:110,1
DA:111,2
DA:112,0
DA:114,3
DA:115,3
DA:116,1
DA:117,2
DA:118,0
DA:120,3
DA:121,4
DA:145,38
DA:146,38
DA:147,38
DA:148,38
DA:149,38
DA:150,38
DA:151,38
DA:152,38
DA:153,38
DA:156,55
DA:157,55
DA:158,55
DA:159,55
DA:162,1
DA:163,1
DA:164,1
DA:167,2
DA:168,2
DA:169,2
DA:172,2
DA:173,2
DA:174,2
DA:175,2
DA:178,1
DA:179,1
DA:180,1
DA:181,1
DA:184,1
DA:185,1
DA:186,1
DA:189,2
DA:190,2
DA:191,2
DA:194,1
DA:195,1
DA:196,1
DA:199,1
DA:200,2
DA:201,1
DA:204,3
DA:205,3
DA:206,3
DA:207,3
DA:210,7
DA:211,4
DA:213,4
DA:214,4
DA:215,4
DA:218,4
DA:219,4
DA:220,4
DA:222,3
DA:223,3
DA:224,1
DA:226,2
DA:228,3
DA:255,4
DA:256,4
DA:257,4
DA:258,4
DA:259,4
DA:260,4
DA:261,4
DA:262,4
DA:263,4
DA:264,4
DA:265,4
DA:266,4
DA:267,4
DA:268,4
DA:269,4
DA:272,1
DA:273,1
DA:274,1
DA:275,1
DA:278,1
DA:279,1
DA:280,1
DA:281,1
DA:284,1
DA:285,1
DA:286,1
DA:289,1
DA:290,1
DA:291,1
DA:310,0
DA:312,0
DA:313,0
DA:316,2
DA:317,2
DA:318,2
DA:321,1
DA:322,3
DA:323,2
DA:324,1
DA:325,0
DA:326,0
DA:327,0
DA:328,1
DA:329,1
DA:331,1
DA:332,1
DA:363,17
DA:364,17
DA:365,17
DA:366,17
DA:367,17
DA:368,17
DA:369,17
DA:370,17
DA:371,17
DA:372,17
DA:373,17
DA:374,17
DA:375,17
DA:376,17
DA:377,17
DA:378,17
DA:381,6
DA:382,6
DA:383,6
DA:384,6
DA:387,8
DA:388,8
DA:389,8
DA:390,8
DA:393,7
DA:394,7
DA:395,7
DA:398,1
DA:399,1
DA:400,1
DA:402,0
DA:404,1
DA:425,5
DA:426,5
DA:427,5
DA:428,5
DA:429,5
DA:430,5
DA:431,5
DA:432,5
DA:433,5
DA:434,5
DA:435,5
DA:438,1
DA:439,1
DA:440,1
DA:443,1
DA:444,1
DA:445,1
DA:448,1
DA:449,1
DA:450,1
DA:464,1
DA:465,1
DA:466,1
DA:467,1
DA:468,1
DA:469,1
DA:472,1
DA:473,1
DA:474,1
DA:477,0
DA:478,0
DA:479,0
DA:481,0
DA:482,0
DA:484,0
DA:485,0
DA:487,0
DA:492,0
DA:493,0
DA:494,0
DA:497,0
DA:502,0
DA:503,0
DA:504,0
DA:506,2
DA:507,2
DA:508,2
DA:510,0
DA:513,0
DA:528,2
DA:529,2
DA:530,2
DA:533,0
DA:534,0
DA:537,0
DA:538,0
DA:539,0
DA:541,0
DA:542,0
DA:545,0
DA:546,0
DA:547,0
DA:550,0
DA:551,0
DA:552,0
DA:555,1
DA:556,1
DA:557,1
DA:558,1
DA:559,1
DA:560,1
DA:561,1
DA:564,0
DA:565,0
DA:566,0
DA:569,1
DA:570,1
DA:571,1
DA:574,0
DA:575,0
DA:576,0
DA:577,0
DA:578,0
DA:579,0
DA:582,0
DA:585,0
DA:586,0
DA:587,0
DA:588,0
DA:589,0
DA:590,0
DA:592,0
DA:594,0
DA:595,0
DA:596,0
DA:604,0
DA:605,0
DA:615,1
DA:616,1
DA:617,1
DA:618,1
DA:620,1
DA:621,1
DA:622,1
DA:623,1
DA:624,1
DA:627,1
DA:628,1
DA:629,1
DA:631,1
DA:632,1
DA:633,1
DA:634,1
DA:635,1
DA:638,1
DA:639,1
DA:640,1
DA:641,1
DA:643,1
DA:644,1
DA:645,1
DA:646,1
DA:647,1
DA:650,1
DA:651,1
DA:652,1
DA:653,1
DA:655,1
DA:656,1
DA:657,1
DA:659,1
DA:660,1
DA:661,1
DA:664,1
DA:665,1
DA:672,1
DA:673,1
DA:674,1
DA:675,1
DA:678,1
DA:679,1
DA:680,1
DA:682,1
DA:683,1
DA:684,1
DA:685,1
DA:686,1
DA:689,1
DA:690,1
DA:691,1
DA:692,1
DA:694,1
DA:695,1
DA:696,1
DA:699,1
DA:700,1
DA:701,1
DA:708,1
DA:709,1
DA:710,1
DA:711,1
DA:714,1
DA:715,1
DA:716,1
DA:717,1
DA:719,1
DA:720,1
DA:721,1
DA:724,1
DA:725,1
DA:726,1
DA:727,1
DA:729,1
DA:730,1
DA:731,1
DA:734,1
DA:735,1
DA:736,1
DA:737,1
DA:738,1
DA:740,1
DA:741,1
DA:742,1
DA:743,1
DA:744,1
DA:745,1
DA:748,1
DA:749,1
DA:756,1
DA:757,1
DA:758,1
DA:759,1
DA:762,1
DA:763,1
DA:770,1
DA:771,1
DA:772,1
DA:775,1
DA:776,1
DA:779,1
DA:780,1
DA:781,1
DA:784,1
DA:786,1
DA:787,1
DA:788,1
DA:791,1
DA:792,1
DA:795,1
DA:796,1
DA:797,1
DA:799,1
DA:800,1
DA:801,1
DA:804,1
DA:805,1
DA:806,1
DA:807,1
DA:809,1
DA:810,1
DA:811,1
DA:813,1
DA:814,1
DA:815,1
DA:818,1
DA:819,1
DA:820,1
DA:821,1
DA:823,1
DA:824,1
DA:825,1
DA:827,1
DA:828,1
DA:829,1
DA:832,1
DA:833,1
DA:834,1
DA:835,1
DA:837,1
DA:838,1
DA:840,1
DA:841,1
DA:842,1
DA:845,1
DA:846,1
DA:847,1
DA:849,1
DA:850,1
DA:853,1
DA:854,1
DA:855,1
DA:856,1
DA:858,1
DA:859,1
DA:860,1
DA:863,1
DA:864,1
DA:865,1
DA:867,1
DA:868,1
DA:871,1
DA:872,1
DA:873,1
DA:875,1
DA:876,1
DA:877,1
DA:880,1
DA:881,1
DA:882,1
DA:883,1
DA:884,1
BRF:0
BRH:0
LF:469
LH:400
end_of_record
SF:/home/nathan/Projects/valknut/src/core/file_utils.rs
FN:116,_RNCNvMNtNtCs64AwlgGXCHI_10valknut_rs4core10file_utilsNtB4_10FileReader12is_code_file0B8_
FN:32,_RNCNvMNtNtCs64AwlgGXCHI_10valknut_rs4core10file_utilsNtB4_10FileReader14read_to_string0B8_
FN:47,_RNCNvMNtNtCs64AwlgGXCHI_10valknut_rs4core10file_utilsNtB4_10FileReader16is_likely_binary0B8_
FN:70,_RNCNvMNtNtCs64AwlgGXCHI_10valknut_rs4core10file_utilsNtB4_10FileReader16is_likely_binarys0_0B8_
FN:83,_RNCNvMNtNtCs64AwlgGXCHI_10valknut_rs4core10file_utilsNtB4_10FileReader16is_likely_binarys1_0B8_
FN:86,_RNCNvMNtNtCs64AwlgGXCHI_10valknut_rs4core10file_utilsNtB4_10FileReader16is_likely_binarys2_0B8_
FN:89,_RNCNvMNtNtCs64AwlgGXCHI_10valknut_rs4core10file_utilsNtB4_10FileReader16is_likely_binarys3_0B8_
FN:63,_RNCNvMNtNtCs64AwlgGXCHI_10valknut_rs4core10file_utilsNtB4_10FileReader16is_likely_binarys_0B8_
FN:105,_RNCNvMNtNtCs64AwlgGXCHI_10valknut_rs4core10file_utilsNtB4_10FileReader19count_lines_of_code0B8_
FN:137,_RNvNtNtNtCs64AwlgGXCHI_10valknut_rs4core10file_utils5testss_20test_read_valid_utf8
FN:156,_RNvNtNtNtCs64AwlgGXCHI_10valknut_rs4core10file_utils5testss_24test_code_file_detection
FN:165,_RNvNtNtNtCs64AwlgGXCHI_10valknut_rs4core10file_utils5testss_24test_count_lines_of_code
FN:147,_RNvNtNtNtCs64AwlgGXCHI_10valknut_rs4core10file_utils5testss_34test_binary_detection_by_extension
FN:115,_RNvMNtNtCs64AwlgGXCHI_10valknut_rs4core10file_utilsNtB2_10FileReader12is_code_file
FN:16,_RNvMNtNtCs64AwlgGXCHI_10valknut_rs4core10file_utilsNtB2_10FileReader14read_to_string
FN:45,_RNvMNtNtCs64AwlgGXCHI_10valknut_rs4core10file_utilsNtB2_10FileReader16is_likely_binary
FN:97,_RNvMNtNtCs64AwlgGXCHI_10valknut_rs4core10file_utilsNtB2_10FileReader19count_lines_of_code
FNDA:5,_RNCNvMNtNtCs64AwlgGXCHI_10valknut_rs4core10file_utilsNtB4_10FileReader12is_code_file0B8_
FNDA:0,_RNCNvMNtNtCs64AwlgGXCHI_10valknut_rs4core10file_utilsNtB4_10FileReader14read_to_string0B8_
FNDA:116,_RNCNvMNtNtCs64AwlgGXCHI_10valknut_rs4core10file_utilsNtB4_10FileReader16is_likely_binary0B8_
FNDA:0,_RNCNvMNtNtCs64AwlgGXCHI_10valknut_rs4core10file_utilsNtB4_10FileReader16is_likely_binarys0_0B8_
FNDA:0,_RNCNvMNtNtCs64AwlgGXCHI_10valknut_rs4core10file_utilsNtB4_10FileReader16is_likely_binarys1_0B8_
FNDA:0,_RNCNvMNtNtCs64AwlgGXCHI_10valknut_rs4core10file_utilsNtB4_10FileReader16is_likely_binarys2_0B8_
FNDA:27200,_RNCNvMNtNtCs64AwlgGXCHI_10valknut_rs4core10file_utilsNtB4_10FileReader16is_likely_binarys3_0B8_
FNDA:4953,_RNCNvMNtNtCs64AwlgGXCHI_10valknut_rs4core10file_utilsNtB4_10FileReader16is_likely_binarys_0B8_
FNDA:137,_RNCNvMNtNtCs64AwlgGXCHI_10valknut_rs4core10file_utilsNtB4_10FileReader19count_lines_of_code0B8_
FNDA:1,_RNvNtNtNtCs64AwlgGXCHI_10valknut_rs4core10file_utils5testss_20test_read_valid_utf8
FNDA:1,_RNvNtNtNtCs64AwlgGXCHI_10valknut_rs4core10file_utils5testss_24test_code_file_detection
FNDA:1,_RNvNtNtNtCs64AwlgGXCHI_10valknut_rs4core10file_utils5testss_24test_count_lines_of_code
FNDA:1,_RNvNtNtNtCs64AwlgGXCHI_10valknut_rs4core10file_utils5testss_34test_binary_detection_by_extension
FNDA:5,_RNvMNtNtCs64AwlgGXCHI_10valknut_rs4core10file_utilsNtB2_10FileReader12is_code_file
FNDA:106,_RNvMNtNtCs64AwlgGXCHI_10valknut_rs4core10file_utilsNtB2_10FileReader14read_to_string
FNDA:116,_RNvMNtNtCs64AwlgGXCHI_10valknut_rs4core10file_utilsNtB2_10FileReader16is_likely_binary
FNDA:9,_RNvMNtNtCs64AwlgGXCHI_10valknut_rs4core10file_utilsNtB2_10FileReader19count_lines_of_code
FNF:17
FNH:13
DA:16,106
DA:18,106
DA:19,0
DA:20,0
DA:21,0
DA:22,106
DA:25,106
DA:26,106
DA:27,0
DA:29,0
DA:31,0
DA:32,0
DA:34,0
DA:35,0
DA:36,0
DA:38,0
DA:42,106
DA:45,116
DA:47,116
DA:48,116
DA:49,116
DA:50,116
DA:51,116
DA:52,116
DA:53,116
DA:54,116
DA:55,116
DA:56,116
DA:57,116
DA:58,116
DA:59,116
DA:60,116
DA:61,116
DA:63,4953
DA:64,1
DA:65,115
DA:66,0
DA:69,115
DA:70,115
DA:73,115
DA:74,0
DA:75,115
DA:78,115
DA:79,115
DA:82,115
DA:83,115
DA:85,115
DA:86,115
DA:89,27200
DA:90,115
DA:93,115
DA:94,116
DA:97,9
DA:98,9
DA:99,0
DA:100,9
DA:102,9
DA:103,9
DA:104,9
DA:105,137
DA:106,137
DA:107,137
DA:108,135
DA:109,135
DA:110,137
DA:111,9
DA:112,9
DA:115,5
DA:116,5
DA:117,3
DA:118,5
DA:119,5
DA:120,2
DA:121,2
DA:122,2
DA:125,0
DA:127,5
DA:137,1
DA:138,1
DA:139,1
DA:140,1
DA:142,1
DA:143,1
DA:144,1
DA:147,1
DA:148,1
DA:149,1
DA:150,1
DA:152,1
DA:153,1
DA:156,1
DA:157,1
DA:158,1
DA:159,1
DA:160,1
DA:161,1
DA:162,1
DA:165,1
DA:166,1
DA:167,1
DA:168,1
DA:170,1
DA:171,1
DA:172,1
BRF:0
BRH:0
LF:113
LH:94
end_of_record
SF:/home/nathan/Projects/valknut/src/core/pipeline/mod.rs
FN:49,_RNvNtNtNtCs64AwlgGXCHI_10valknut_rs4core8pipeline5testss_20test_pipeline_status
FN:26,_RNvNtNtNtCs64AwlgGXCHI_10valknut_rs4core8pipeline5testss_28test_pipeline_fit_legacy_api
FN:58,_RNvNtNtNtCs64AwlgGXCHI_10valknut_rs4core8pipeline5testss_29test_quality_gates_evaluation
FN:127,_RNvNtNtNtCs64AwlgGXCHI_10valknut_rs4core8pipeline5testss_32test_analyze_paths_with_progress
FN:34,_RNvNtNtNtCs64AwlgGXCHI_10valknut_rs4core8pipeline5testss_32test_pipeline_extractor_registry
FN:116,_RNvNtNtNtCs64AwlgGXCHI_10valknut_rs4core8pipeline5testss_34test_analyze_directory_integration
FN:42,_RNvNtNtNtCs64AwlgGXCHI_10valknut_rs4core8pipeline5testss_36test_pipeline_analyze_vectors_legacy
FN:137,_RNCNCNvNtNtNtCs64AwlgGXCHI_10valknut_rs4core8pipeline5testss_32test_analyze_paths_with_progress00Bb_
FN:49,_RNCNvNtNtNtCs64AwlgGXCHI_10valknut_rs4core8pipeline5testss_20test_pipeline_status0B9_
FN:26,_RNCNvNtNtNtCs64AwlgGXCHI_10valknut_rs4core8pipeline5testss_28test_pipeline_fit_legacy_api0B9_
FN:58,_RNCNvNtNtNtCs64AwlgGXCHI_10valknut_rs4core8pipeline5testss_29test_quality_gates_evaluation0B9_
FN:127,_RNCNvNtNtNtCs64AwlgGXCHI_10valknut_rs4core8pipeline5testss_32test_analyze_paths_with_progress0B9_
FN:34,_RNCNvNtNtNtCs64AwlgGXCHI_10valknut_rs4core8pipeline5testss_32test_pipeline_extractor_registry0B9_
FN:116,_RNCNvNtNtNtCs64AwlgGXCHI_10valknut_rs4core8pipeline5testss_34test_analyze_directory_integration0B9_
FN:42,_RNCNvNtNtNtCs64AwlgGXCHI_10valknut_rs4core8pipeline5testss_36test_pipeline_analyze_vectors_legacy0B9_
FNDA:1,_RNvNtNtNtCs64AwlgGXCHI_10valknut_rs4core8pipeline5testss_20test_pipeline_status
FNDA:1,_RNvNtNtNtCs64AwlgGXCHI_10valknut_rs4core8pipeline5testss_28test_pipeline_fit_legacy_api
FNDA:1,_RNvNtNtNtCs64AwlgGXCHI_10valknut_rs4core8pipeline5testss_29test_quality_gates_evaluation
FNDA:1,_RNvNtNtNtCs64AwlgGXCHI_10valknut_rs4core8pipeline5testss_32test_analyze_paths_with_progress
FNDA:1,_RNvNtNtNtCs64AwlgGXCHI_10valknut_rs4core8pipeline5testss_32test_pipeline_extractor_registry
FNDA:1,_RNvNtNtNtCs64AwlgGXCHI_10valknut_rs4core8pipeline5testss_34test_analyze_directory_integration
FNDA:1,_RNvNtNtNtCs64AwlgGXCHI_10valknut_rs4core8pipeline5testss_36test_pipeline_analyze_vectors_legacy
FNDA:7,_RNCNCNvNtNtNtCs64AwlgGXCHI_10valknut_rs4core8pipeline5testss_32test_analyze_paths_with_progress00Bb_
FNDA:1,_RNCNvNtNtNtCs64AwlgGXCHI_10valknut_rs4core8pipeline5testss_20test_pipeline_status0B9_
FNDA:1,_RNCNvNtNtNtCs64AwlgGXCHI_10valknut_rs4core8pipeline5testss_28test_pipeline_fit_legacy_api0B9_
FNDA:1,_RNCNvNtNtNtCs64AwlgGXCHI_10valknut_rs4core8pipeline5testss_29test_quality_gates_evaluation0B9_
FNDA:1,_RNCNvNtNtNtCs64AwlgGXCHI_10valknut_rs4core8pipeline5testss_32test_analyze_paths_with_progress0B9_
FNDA:1,_RNCNvNtNtNtCs64AwlgGXCHI_10valknut_rs4core8pipeline5testss_32test_pipeline_extractor_registry0B9_
FNDA:1,_RNCNvNtNtNtCs64AwlgGXCHI_10valknut_rs4core8pipeline5testss_34test_analyze_directory_integration0B9_
FNDA:1,_RNCNvNtNtNtCs64AwlgGXCHI_10valknut_rs4core8pipeline5testss_36test_pipeline_analyze_vectors_legacy0B9_
FNF:15
FNH:15
DA:26,1
DA:27,1
DA:28,1
DA:29,1
DA:30,1
DA:31,1
DA:34,1
DA:35,1
DA:36,1
DA:37,1
DA:38,1
DA:39,1
DA:42,1
DA:43,1
DA:44,1
DA:45,1
DA:46,1
DA:49,1
DA:50,1
DA:51,1
DA:52,1
DA:53,1
DA:54,1
DA:55,1
DA:58,1
DA:59,1
DA:60,1
DA:61,1
DA:62,1
DA:63,1
DA:64,1
DA:65,1
DA:66,1
DA:67,1
DA:68,1
DA:69,1
DA:70,1
DA:71,1
DA:72,1
DA:73,1
DA:74,1
DA:75,1
DA:76,1
DA:77,1
DA:78,1
DA:79,1
DA:80,1
DA:81,1
DA:82,1
DA:83,1
DA:84,1
DA:85,1
DA:86,1
DA:87,1
DA:88,1
DA:89,1
DA:90,1
DA:91,1
DA:92,1
DA:93,1
DA:94,1
DA:95,1
DA:96,1
DA:97,1
DA:98,1
DA:99,1
DA:100,1
DA:101,1
DA:102,1
DA:103,1
DA:104,1
DA:105,1
DA:106,1
DA:107,1
DA:108,1
DA:109,1
DA:111,1
DA:112,1
DA:113,1
DA:116,1
DA:117,1
DA:118,1
DA:119,1
DA:121,1
DA:122,1
DA:123,1
DA:124,1
DA:127,1
DA:128,1
DA:129,1
DA:130,1
DA:132,1
DA:133,1
DA:135,1
DA:136,1
DA:137,7
DA:138,7
DA:139,7
DA:141,1
DA:142,1
DA:143,1
DA:144,1
BRF:0
BRH:0
LF:118
LH:118
end_of_record
SF:/home/nathan/Projects/valknut/src/core/pipeline/pipeline_config.rs
FN:28,_RNvXNtNtNtCs64AwlgGXCHI_10valknut_rs4core8pipeline15pipeline_configNtB2_14AnalysisConfigNtNtCs66KPHxksi63_4core7default7Default7default
FN:81,_RNvXs0_NtNtNtCs64AwlgGXCHI_10valknut_rs4core8pipeline15pipeline_configNtB5_17QualityGateConfigNtNtCs66KPHxksi63_4core7default7Default7default
FN:58,_RNvXs_NtNtNtCs64AwlgGXCHI_10valknut_rs4core8pipeline15pipeline_configNtB4_14AnalysisConfigINtNtCs66KPHxksi63_4core7convert4FromNtNtB8_6config13ValknutConfigE4from
FNDA:24,_RNvXNtNtNtCs64AwlgGXCHI_10valknut_rs4core8pipeline15pipeline_configNtB2_14AnalysisConfigNtNtCs66KPHxksi63_4core7default7Default7default
FNDA:1,_RNvXs0_NtNtNtCs64AwlgGXCHI_10valknut_rs4core8pipeline15pipeline_configNtB5_17QualityGateConfigNtNtCs66KPHxksi63_4core7default7Default7default
FNDA:16,_RNvXs_NtNtNtCs64AwlgGXCHI_10valknut_rs4core8pipeline15pipeline_configNtB4_14AnalysisConfigINtNtCs66KPHxksi63_4core7convert4FromNtNtB8_6config13ValknutConfigE4from
FNF:3
FNH:3
DA:28,24
DA:29,24
DA:30,24
DA:31,24
DA:32,24
DA:33,24
DA:34,24
DA:35,24
DA:36,24
DA:37,24
DA:38,24
DA:39,24
DA:40,24
DA:41,24
DA:42,24
DA:43,24
DA:44,24
DA:45,24
DA:46,24
DA:47,24
DA:48,24
DA:49,24
DA:50,24
DA:51,24
DA:52,24
DA:53,24
DA:54,24
DA:58,16
DA:59,16
DA:60,16
DA:81,1
DA:82,1
DA:83,1
DA:84,1
DA:85,1
DA:86,1
DA:87,1
DA:88,1
DA:89,1
DA:90,1
BRF:0
BRH:0
LF:40
LH:40
end_of_record
SF:/home/nathan/Projects/valknut/src/core/pipeline/pipeline_executor.rs
FN:355,_RNvMNtNtNtCs64AwlgGXCHI_10valknut_rs4core8pipeline17pipeline_executorNtB2_16AnalysisPipeline10get_status
FN:58,_RNvMNtNtNtCs64AwlgGXCHI_10valknut_rs4core8pipeline17pipeline_executorNtB2_16AnalysisPipeline13analyze_paths
FN:177,_RNvMNtNtNtCs64AwlgGXCHI_10valknut_rs4core8pipeline17pipeline_executorNtB2_16AnalysisPipeline14discover_files
FN:398,_RNvMNtNtNtCs64AwlgGXCHI_10valknut_rs4core8pipeline17pipeline_executorNtB2_16AnalysisPipeline15analyze_vectors
FN:373,_RNvMNtNtNtCs64AwlgGXCHI_10valknut_rs4core8pipeline17pipeline_executorNtB2_16AnalysisPipeline17analyze_directory
FN:240,_RNvMNtNtNtCs64AwlgGXCHI_10valknut_rs4core8pipeline17pipeline_executorNtB2_16AnalysisPipeline17calculate_summary
FN:477,_RNvMNtNtNtCs64AwlgGXCHI_10valknut_rs4core8pipeline17pipeline_executorNtB2_16AnalysisPipeline18extractor_registry
FN:222,_RNvMNtNtNtCs64AwlgGXCHI_10valknut_rs4core8pipeline17pipeline_executorNtB2_16AnalysisPipeline19should_include_file
FN:482,_RNvMNtNtNtCs64AwlgGXCHI_10valknut_rs4core8pipeline17pipeline_executorNtB2_16AnalysisPipeline22evaluate_quality_gates
FN:301,_RNvMNtNtNtCs64AwlgGXCHI_10valknut_rs4core8pipeline17pipeline_executorNtB2_16AnalysisPipeline24calculate_health_metrics
FN:200,_RNvMNtNtNtCs64AwlgGXCHI_10valknut_rs4core8pipeline17pipeline_executorNtB2_16AnalysisPipeline24discover_files_recursive
FN:231,_RNvMNtNtNtCs64AwlgGXCHI_10valknut_rs4core8pipeline17pipeline_executorNtB2_16AnalysisPipeline24should_include_directory
FN:471,_RNvMNtNtNtCs64AwlgGXCHI_10valknut_rs4core8pipeline17pipeline_executorNtB2_16AnalysisPipeline3fit
FN:35,_RNvMNtNtNtCs64AwlgGXCHI_10valknut_rs4core8pipeline17pipeline_executorNtB2_16AnalysisPipeline3new
FN:53,_RNvMNtNtNtCs64AwlgGXCHI_10valknut_rs4core8pipeline17pipeline_executorNtB2_16AnalysisPipeline7default
FN:368,_RNvMNtNtNtCs64AwlgGXCHI_10valknut_rs4core8pipeline17pipeline_executorNtB2_16AnalysisPipeline8is_ready
FN:504,_RNvMs_NtNtNtCs64AwlgGXCHI_10valknut_rs4core8pipeline17pipeline_executorNtB4_17ExtractorRegistry18get_all_extractors
FN:500,_RNvMs_NtNtNtCs64AwlgGXCHI_10valknut_rs4core8pipeline17pipeline_executorNtB4_17ExtractorRegistry3new
FN:203,_RNCNCNvMNtNtNtCs64AwlgGXCHI_10valknut_rs4core8pipeline17pipeline_executorNtB6_16AnalysisPipeline24discover_files_recursive00Bc_
FN:206,_RNCNCNvMNtNtNtCs64AwlgGXCHI_10valknut_rs4core8pipeline17pipeline_executorNtB6_16AnalysisPipeline24discover_files_recursive0s_0Bc_
FN:62,_RNCNvMNtNtNtCs64AwlgGXCHI_10valknut_rs4core8pipeline17pipeline_executorNtB4_16AnalysisPipeline13analyze_paths0Ba_
FN:177,_RNCNvMNtNtNtCs64AwlgGXCHI_10valknut_rs4core8pipeline17pipeline_executorNtB4_16AnalysisPipeline14discover_files0Ba_
FN:398,_RNCNvMNtNtNtCs64AwlgGXCHI_10valknut_rs4core8pipeline17pipeline_executorNtB4_16AnalysisPipeline15analyze_vectors0Ba_
FN:373,_RNCNvMNtNtNtCs64AwlgGXCHI_10valknut_rs4core8pipeline17pipeline_executorNtB4_16AnalysisPipeline17analyze_directory0Ba_
FN:252,_RNCNvMNtNtNtCs64AwlgGXCHI_10valknut_rs4core8pipeline17pipeline_executorNtB4_16AnalysisPipeline17calculate_summary0Ba_
FN:258,_RNCNvMNtNtNtCs64AwlgGXCHI_10valknut_rs4core8pipeline17pipeline_executorNtB4_16AnalysisPipeline17calculate_summarys_0Ba_
FN:223,_RNCNvMNtNtNtCs64AwlgGXCHI_10valknut_rs4core8pipeline17pipeline_executorNtB4_16AnalysisPipeline19should_include_file0Ba_
FN:201,_RNCNvMNtNtNtCs64AwlgGXCHI_10valknut_rs4core8pipeline17pipeline_executorNtB4_16AnalysisPipeline24discover_files_recursive0Ba_
FN:232,_RNCNvMNtNtNtCs64AwlgGXCHI_10valknut_rs4core8pipeline17pipeline_executorNtB4_16AnalysisPipeline24should_include_directory0Ba_
FN:471,_RNCNvMNtNtNtCs64AwlgGXCHI_10valknut_rs4core8pipeline17pipeline_executorNtB4_16AnalysisPipeline3fit0Ba_
FNDA:4,_RNvMNtNtNtCs64AwlgGXCHI_10valknut_rs4core8pipeline17pipeline_executorNtB2_16AnalysisPipeline10get_status
FNDA:4,_RNvMNtNtNtCs64AwlgGXCHI_10valknut_rs4core8pipeline17pipeline_executorNtB2_16AnalysisPipeline13analyze_paths
FNDA:4,_RNvMNtNtNtCs64AwlgGXCHI_10valknut_rs4core8pipeline17pipeline_executorNtB2_16AnalysisPipeline14discover_files
FNDA:4,_RNvMNtNtNtCs64AwlgGXCHI_10valknut_rs4core8pipeline17pipeline_executorNtB2_16AnalysisPipeline15analyze_vectors
FNDA:3,_RNvMNtNtNtCs64AwlgGXCHI_10valknut_rs4core8pipeline17pipeline_executorNtB2_16AnalysisPipeline17analyze_directory
FNDA:4,_RNvMNtNtNtCs64AwlgGXCHI_10valknut_rs4core8pipeline17pipeline_executorNtB2_16AnalysisPipeline17calculate_summary
FNDA:3,_RNvMNtNtNtCs64AwlgGXCHI_10valknut_rs4core8pipeline17pipeline_executorNtB2_16AnalysisPipeline18extractor_registry
FNDA:3,_RNvMNtNtNtCs64AwlgGXCHI_10valknut_rs4core8pipeline17pipeline_executorNtB2_16AnalysisPipeline19should_include_file
FNDA:1,_RNvMNtNtNtCs64AwlgGXCHI_10valknut_rs4core8pipeline17pipeline_executorNtB2_16AnalysisPipeline22evaluate_quality_gates
FNDA:4,_RNvMNtNtNtCs64AwlgGXCHI_10valknut_rs4core8pipeline17pipeline_executorNtB2_16AnalysisPipeline24calculate_health_metrics
FNDA:4,_RNvMNtNtNtCs64AwlgGXCHI_10valknut_rs4core8pipeline17pipeline_executorNtB2_16AnalysisPipeline24discover_files_recursive
FNDA:0,_RNvMNtNtNtCs64AwlgGXCHI_10valknut_rs4core8pipeline17pipeline_executorNtB2_16AnalysisPipeline24should_include_directory
FNDA:1,_RNvMNtNtNtCs64AwlgGXCHI_10valknut_rs4core8pipeline17pipeline_executorNtB2_16AnalysisPipeline3fit
FNDA:23,_RNvMNtNtNtCs64AwlgGXCHI_10valknut_rs4core8pipeline17pipeline_executorNtB2_16AnalysisPipeline3new
FNDA:7,_RNvMNtNtNtCs64AwlgGXCHI_10valknut_rs4core8pipeline17pipeline_executorNtB2_16AnalysisPipeline7default
FNDA:8,_RNvMNtNtNtCs64AwlgGXCHI_10valknut_rs4core8pipeline17pipeline_executorNtB2_16AnalysisPipeline8is_ready
FNDA:3,_RNvMs_NtNtNtCs64AwlgGXCHI_10valknut_rs4core8pipeline17pipeline_executorNtB4_17ExtractorRegistry18get_all_extractors
FNDA:3,_RNvMs_NtNtNtCs64AwlgGXCHI_10valknut_rs4core8pipeline17pipeline_executorNtB4_17ExtractorRegistry3new
FNDA:0,_RNCNCNvMNtNtNtCs64AwlgGXCHI_10valknut_rs4core8pipeline17pipeline_executorNtB6_16AnalysisPipeline24discover_files_recursive00Bc_
FNDA:0,_RNCNCNvMNtNtNtCs64AwlgGXCHI_10valknut_rs4core8pipeline17pipeline_executorNtB6_16AnalysisPipeline24discover_files_recursive0s_0Bc_
FNDA:4,_RNCNvMNtNtNtCs64AwlgGXCHI_10valknut_rs4core8pipeline17pipeline_executorNtB4_16AnalysisPipeline13analyze_paths0Ba_
FNDA:4,_RNCNvMNtNtNtCs64AwlgGXCHI_10valknut_rs4core8pipeline17pipeline_executorNtB4_16AnalysisPipeline14discover_files0Ba_
FNDA:4,_RNCNvMNtNtNtCs64AwlgGXCHI_10valknut_rs4core8pipeline17pipeline_executorNtB4_16AnalysisPipeline15analyze_vectors0Ba_
FNDA:3,_RNCNvMNtNtNtCs64AwlgGXCHI_10valknut_rs4core8pipeline17pipeline_executorNtB4_16AnalysisPipeline17analyze_directory0Ba_
FNDA:3,_RNCNvMNtNtNtCs64AwlgGXCHI_10valknut_rs4core8pipeline17pipeline_executorNtB4_16AnalysisPipeline17calculate_summary0Ba_
FNDA:3,_RNCNvMNtNtNtCs64AwlgGXCHI_10valknut_rs4core8pipeline17pipeline_executorNtB4_16AnalysisPipeline17calculate_summarys_0Ba_
FNDA:3,_RNCNvMNtNtNtCs64AwlgGXCHI_10valknut_rs4core8pipeline17pipeline_executorNtB4_16AnalysisPipeline19should_include_file0Ba_
FNDA:4,_RNCNvMNtNtNtCs64AwlgGXCHI_10valknut_rs4core8pipeline17pipeline_executorNtB4_16AnalysisPipeline24discover_files_recursive0Ba_
FNDA:0,_RNCNvMNtNtNtCs64AwlgGXCHI_10valknut_rs4core8pipeline17pipeline_executorNtB4_16AnalysisPipeline24should_include_directory0Ba_
FNDA:1,_RNCNvMNtNtNtCs64AwlgGXCHI_10valknut_rs4core8pipeline17pipeline_executorNtB4_16AnalysisPipeline3fit0Ba_
FNF:30
FNH:26
DA:35,23
DA:36,23
DA:37,23
DA:38,23
DA:40,23
DA:41,23
DA:42,23
DA:43,23
DA:46,23
DA:47,23
DA:48,23
DA:49,23
DA:50,23
DA:53,7
DA:54,7
DA:55,7
DA:58,4
DA:59,4
DA:60,4
DA:61,4
DA:62,4
DA:63,4
DA:64,4
DA:66,4
DA:69,4
DA:70,1
DA:71,3
DA:74,4
DA:75,4
DA:77,4
DA:78,1
DA:79,3
DA:82,4
DA:83,4
DA:85,0
DA:86,0
DA:87,0
DA:88,0
DA:89,0
DA:90,0
DA:93,4
DA:94,1
DA:95,3
DA:98,4
DA:99,4
DA:101,0
DA:102,0
DA:103,0
DA:104,0
DA:105,0
DA:106,0
DA:107,0
DA:108,0
DA:109,0
DA:112,4
DA:113,1
DA:114,3
DA:117,4
DA:118,4
DA:120,0
DA:121,0
DA:122,0
DA:123,0
DA:124,0
DA:127,4
DA:128,1
DA:129,3
DA:132,4
DA:133,4
DA:135,0
DA:136,0
DA:137,0
DA:138,0
DA:139,0
DA:140,0
DA:141,0
DA:144,4
DA:145,1
DA:146,3
DA:149,4
DA:150,4
DA:152,4
DA:153,1
DA:154,3
DA:156,4
DA:158,4
DA:159,4
DA:160,4
DA:162,4
DA:163,4
DA:164,4
DA:165,4
DA:166,4
DA:167,4
DA:168,4
DA:169,4
DA:170,4
DA:171,4
DA:172,4
DA:173,4
DA:174,4
DA:177,4
DA:178,4
DA:180,8
DA:181,4
DA:182,0
DA:183,0
DA:184,0
DA:185,4
DA:186,4
DA:187,0
DA:191,4
DA:192,0
DA:193,0
DA:194,4
DA:196,4
DA:197,4
DA:200,4
DA:201,4
DA:202,4
DA:203,4
DA:205,7
DA:206,7
DA:208,3
DA:210,3
DA:211,3
DA:212,3
DA:213,0
DA:214,0
DA:217,4
DA:218,4
DA:219,4
DA:222,3
DA:223,3
DA:224,3
DA:226,0
DA:228,3
DA:231,0
DA:232,0
DA:233,0
DA:235,0
DA:237,0
DA:240,4
DA:241,4
DA:242,4
DA:243,4
DA:244,4
DA:245,4
DA:246,4
DA:247,4
DA:248,4
DA:249,4
DA:250,4
DA:251,4
DA:252,4
DA:253,4
DA:256,4
DA:257,7
DA:258,3
DA:259,3
DA:260,3
DA:261,2
DA:262,2
DA:263,2
DA:264,0
DA:265,0
DA:266,0
DA:268,3
DA:269,0
DA:272,4
DA:275,4
DA:276,4
DA:278,7
DA:279,3
DA:280,0
DA:281,0
DA:282,0
DA:283,0
DA:284,0
DA:289,4
DA:290,4
DA:291,4
DA:292,4
DA:293,4
DA:294,4
DA:295,4
DA:296,4
DA:297,4
DA:298,4
DA:301,4
DA:302,4
DA:303,4
DA:304,4
DA:305,4
DA:306,4
DA:308,4
DA:309,4
DA:310,4
DA:312,0
DA:316,4
DA:317,4
DA:319,0
DA:323,4
DA:324,4
DA:326,0
DA:330,4
DA:331,4
DA:332,4
DA:334,0
DA:338,4
DA:339,4
DA:340,4
DA:341,4
DA:342,4
DA:343,4
DA:345,4
DA:346,4
DA:347,4
DA:348,4
DA:349,4
DA:350,4
DA:351,4
DA:352,4
DA:355,4
DA:356,4
DA:358,4
DA:359,4
DA:360,4
DA:361,4
DA:362,4
DA:365,4
DA:368,8
DA:369,8
DA:370,8
DA:373,3
DA:374,3
DA:375,3
DA:377,3
DA:378,3
DA:379,3
DA:380,3
DA:381,3
DA:382,3
DA:383,3
DA:384,3
DA:385,3
DA:386,3
DA:387,3
DA:388,3
DA:389,3
DA:390,3
DA:391,3
DA:392,3
DA:393,3
DA:394,3
DA:395,3
DA:398,4
DA:400,4
DA:401,4
DA:402,4
DA:403,4
DA:404,4
DA:405,4
DA:406,4
DA:407,4
DA:408,4
DA:409,4
DA:410,4
DA:411,4
DA:412,4
DA:413,4
DA:414,4
DA:415,4
DA:416,4
DA:417,4
DA:418,4
DA:419,4
DA:420,4
DA:421,4
DA:422,4
DA:423,4
DA:424,4
DA:425,4
DA:426,4
DA:427,4
DA:428,4
DA:429,4
DA:430,4
DA:431,4
DA:432,4
DA:433,4
DA:434,4
DA:435,4
DA:436,4
DA:437,4
DA:438,4
DA:439,4
DA:440,4
DA:441,4
DA:442,4
DA:443,4
DA:444,4
DA:445,4
DA:446,4
DA:447,4
DA:448,4
DA:450,4
DA:451,4
DA:452,4
DA:453,4
DA:454,4
DA:455,4
DA:456,4
DA:457,4
DA:458,4
DA:459,4
DA:460,4
DA:461,4
DA:462,4
DA:463,4
DA:464,4
DA:465,4
DA:466,4
DA:467,4
DA:468,4
DA:471,1
DA:473,1
DA:474,1
DA:477,3
DA:478,3
DA:479,3
DA:482,1
DA:483,1
DA:484,1
DA:485,1
DA:486,1
DA:488,1
DA:489,1
DA:490,1
DA:491,1
DA:492,1
DA:493,1
DA:500,3
DA:501,3
DA:502,3
DA:504,3
DA:505,3
DA:506,3
BRF:0
BRH:0
LF:360
LH:303
end_of_record
SF:/home/nathan/Projects/valknut/src/core/pipeline/pipeline_results.rs
FN:239,_RNvMs0_NtNtNtCs64AwlgGXCHI_10valknut_rs4core8pipeline16pipeline_resultsNtB5_9FileScore17needs_refactoring
FN:221,_RNvMs_NtNtNtCs64AwlgGXCHI_10valknut_rs4core8pipeline16pipeline_resultsNtB4_14ScoringResults4iter
FN:152,_RNvMNtNtNtCs64AwlgGXCHI_10valknut_rs4core8pipeline16pipeline_resultsNtB2_15PipelineResults7summary
FNDA:0,_RNvMs0_NtNtNtCs64AwlgGXCHI_10valknut_rs4core8pipeline16pipeline_resultsNtB5_9FileScore17needs_refactoring
FNDA:0,_RNvMs_NtNtNtCs64AwlgGXCHI_10valknut_rs4core8pipeline16pipeline_resultsNtB4_14ScoringResults4iter
FNDA:5,_RNvMNtNtNtCs64AwlgGXCHI_10valknut_rs4core8pipeline16pipeline_resultsNtB2_15PipelineResults7summary
FNF:3
FNH:1
DA:152,5
DA:153,5
DA:154,5
DA:155,5
DA:156,1
DA:158,4
DA:161,5
DA:162,5
DA:163,5
DA:164,5
DA:165,5
DA:166,5
DA:167,5
DA:168,5
DA:169,5
DA:170,5
DA:221,0
DA:222,0
DA:223,0
DA:239,0
DA:240,0
DA:241,0
BRF:0
BRH:0
LF:22
LH:16
end_of_record
SF:/home/nathan/Projects/valknut/src/core/pipeline/pipeline_stages.rs
FN:119,_RNvMNtNtNtCs64AwlgGXCHI_10valknut_rs4core8pipeline15pipeline_stagesNtB2_14AnalysisStages19run_impact_analysis
FN:37,_RNvMNtNtNtCs64AwlgGXCHI_10valknut_rs4core8pipeline15pipeline_stagesNtB2_14AnalysisStages22run_structure_analysis
FN:72,_RNvMNtNtNtCs64AwlgGXCHI_10valknut_rs4core8pipeline15pipeline_stagesNtB2_14AnalysisStages23run_complexity_analysis
FN:105,_RNvMNtNtNtCs64AwlgGXCHI_10valknut_rs4core8pipeline15pipeline_stagesNtB2_14AnalysisStages24run_refactoring_analysis
FN:24,_RNvMNtNtNtCs64AwlgGXCHI_10valknut_rs4core8pipeline15pipeline_stagesNtB2_14AnalysisStages3new
FN:75,_RNCNCNvMNtNtNtCs64AwlgGXCHI_10valknut_rs4core8pipeline15pipeline_stagesNtB6_14AnalysisStages23run_complexity_analysis00Bc_
FN:91,_RNCNCNvMNtNtNtCs64AwlgGXCHI_10valknut_rs4core8pipeline15pipeline_stagesNtB6_14AnalysisStages23run_complexity_analysis0s3_0Bc_
FN:109,_RNCNCNvMNtNtNtCs64AwlgGXCHI_10valknut_rs4core8pipeline15pipeline_stagesNtB6_14AnalysisStages24run_refactoring_analysis00Bc_
FN:119,_RNCNvMNtNtNtCs64AwlgGXCHI_10valknut_rs4core8pipeline15pipeline_stagesNtB4_14AnalysisStages19run_impact_analysis0Ba_
FN:37,_RNCNvMNtNtNtCs64AwlgGXCHI_10valknut_rs4core8pipeline15pipeline_stagesNtB4_14AnalysisStages22run_structure_analysis0Ba_
FN:72,_RNCNvMNtNtNtCs64AwlgGXCHI_10valknut_rs4core8pipeline15pipeline_stagesNtB4_14AnalysisStages23run_complexity_analysis0Ba_
FN:105,_RNCNvMNtNtNtCs64AwlgGXCHI_10valknut_rs4core8pipeline15pipeline_stagesNtB4_14AnalysisStages24run_refactoring_analysis0Ba_
FNDA:4,_RNvMNtNtNtCs64AwlgGXCHI_10valknut_rs4core8pipeline15pipeline_stagesNtB2_14AnalysisStages19run_impact_analysis
FNDA:4,_RNvMNtNtNtCs64AwlgGXCHI_10valknut_rs4core8pipeline15pipeline_stagesNtB2_14AnalysisStages22run_structure_analysis
FNDA:4,_RNvMNtNtNtCs64AwlgGXCHI_10valknut_rs4core8pipeline15pipeline_stagesNtB2_14AnalysisStages23run_complexity_analysis
FNDA:4,_RNvMNtNtNtCs64AwlgGXCHI_10valknut_rs4core8pipeline15pipeline_stagesNtB2_14AnalysisStages24run_refactoring_analysis
FNDA:23,_RNvMNtNtNtCs64AwlgGXCHI_10valknut_rs4core8pipeline15pipeline_stagesNtB2_14AnalysisStages3new
FNDA:3,_RNCNCNvMNtNtNtCs64AwlgGXCHI_10valknut_rs4core8pipeline15pipeline_stagesNtB6_14AnalysisStages23run_complexity_analysis00Bc_
FNDA:3,_RNCNCNvMNtNtNtCs64AwlgGXCHI_10valknut_rs4core8pipeline15pipeline_stagesNtB6_14AnalysisStages23run_complexity_analysis0s3_0Bc_
FNDA:0,_RNCNCNvMNtNtNtCs64AwlgGXCHI_10valknut_rs4core8pipeline15pipeline_stagesNtB6_14AnalysisStages24run_refactoring_analysis00Bc_
FNDA:4,_RNCNvMNtNtNtCs64AwlgGXCHI_10valknut_rs4core8pipeline15pipeline_stagesNtB4_14AnalysisStages19run_impact_analysis0Ba_
FNDA:4,_RNCNvMNtNtNtCs64AwlgGXCHI_10valknut_rs4core8pipeline15pipeline_stagesNtB4_14AnalysisStages22run_structure_analysis0Ba_
FNDA:4,_RNCNvMNtNtNtCs64AwlgGXCHI_10valknut_rs4core8pipeline15pipeline_stagesNtB4_14AnalysisStages23run_complexity_analysis0Ba_
FNDA:4,_RNCNvMNtNtNtCs64AwlgGXCHI_10valknut_rs4core8pipeline15pipeline_stagesNtB4_14AnalysisStages24run_refactoring_analysis0Ba_
FNF:12
FNH:11
DA:24,23
DA:25,23
DA:26,23
DA:27,23
DA:28,23
DA:29,23
DA:30,23
DA:31,23
DA:32,23
DA:33,23
DA:34,23
DA:37,4
DA:38,4
DA:40,4
DA:41,4
DA:43,8
DA:44,4
DA:45,4
DA:46,4
DA:47,0
DA:48,0
DA:49,0
DA:50,0
DA:51,0
DA:52,0
DA:53,0
DA:57,0
DA:61,4
DA:63,4
DA:64,4
DA:65,4
DA:66,4
DA:67,4
DA:68,4
DA:69,4
DA:72,4
DA:73,4
DA:75,4
DA:76,4
DA:79,4
DA:80,4
DA:81,4
DA:82,4
DA:83,4
DA:85,4
DA:86,4
DA:87,4
DA:88,4
DA:91,4
DA:93,4
DA:94,4
DA:95,4
DA:96,4
DA:97,4
DA:98,4
DA:99,4
DA:100,4
DA:101,4
DA:102,4
DA:105,4
DA:106,4
DA:108,4
DA:109,4
DA:111,4
DA:112,4
DA:113,4
DA:114,4
DA:115,4
DA:116,4
DA:119,4
DA:120,4
DA:123,4
DA:124,4
DA:125,4
DA:126,4
DA:127,4
DA:128,4
DA:129,4
DA:130,4
BRF:0
BRH:0
LF:86
LH:77
end_of_record
SF:/home/nathan/Projects/valknut/src/core/scoring.rs
FN:619,_RNvNtNtNtCs64AwlgGXCHI_10valknut_rs4core7scoring5tests18create_test_config
FN:674,_RNvNtNtNtCs64AwlgGXCHI_10valknut_rs4core7scoring5testss_19test_feature_scorer
FN:887,_RNvNtNtNtCs64AwlgGXCHI_10valknut_rs4core7scoring5testss_19test_priority_value
FN:713,_RNvNtNtNtCs64AwlgGXCHI_10valknut_rs4core7scoring5testss_19test_scoring_result
FN:642,_RNvNtNtNtCs64AwlgGXCHI_10valknut_rs4core7scoring5testss_23test_feature_normalizer
FN:704,_RNvNtNtNtCs64AwlgGXCHI_10valknut_rs4core7scoring5testss_25test_priority_calculation
FN:630,_RNvNtNtNtCs64AwlgGXCHI_10valknut_rs4core7scoring5testss_29test_normalization_statistics
FN:849,_RNvNtNtNtCs64AwlgGXCHI_10valknut_rs4core7scoring5testss_34test_feature_scorer_compute_scores
FN:822,_RNvNtNtNtCs64AwlgGXCHI_10valknut_rs4core7scoring5testss_35test_normalization_statistics_empty
FN:922,_RNvNtNtNtCs64AwlgGXCHI_10valknut_rs4core7scoring5testss_36test_scoring_result_is_high_priority
FN:896,_RNvNtNtNtCs64AwlgGXCHI_10valknut_rs4core7scoring5testss_37test_scoring_result_needs_refactoring
FN:776,_RNvNtNtNtCs64AwlgGXCHI_10valknut_rs4core7scoring5testss_38test_feature_normalizer_get_statistics
FN:742,_RNvNtNtNtCs64AwlgGXCHI_10valknut_rs4core7scoring5testss_39test_feature_normalizer_normalize_value
FN:873,_RNvNtNtNtCs64AwlgGXCHI_10valknut_rs4core7scoring5testss_39test_feature_scorer_get_category_weight
FN:834,_RNvNtNtNtCs64AwlgGXCHI_10valknut_rs4core7scoring5testss_40test_normalization_statistics_percentile
FN:799,_RNvNtNtNtCs64AwlgGXCHI_10valknut_rs4core7scoring5testss_42test_feature_normalizer_get_all_statistics
FN:363,_RNvMs0_NtNtCs64AwlgGXCHI_10valknut_rs4core7scoringNtB5_13FeatureScorer12score_single
FN:509,_RNvMs0_NtNtCs64AwlgGXCHI_10valknut_rs4core7scoringNtB5_13FeatureScorer14get_normalizer
FN:124,_RNvMNtNtCs64AwlgGXCHI_10valknut_rs4core7scoringNtB2_23NormalizationStatistics10percentile
FN:59,_RNvMNtNtCs64AwlgGXCHI_10valknut_rs4core7scoringNtB2_23NormalizationStatistics11from_values
FN:143,_RNvMNtNtCs64AwlgGXCHI_10valknut_rs4core7scoringNtB2_23NormalizationStatistics15median_of_slice
FN:107,_RNvMNtNtCs64AwlgGXCHI_10valknut_rs4core7scoringNtB2_23NormalizationStatistics5empty
FN:375,_RNvMs0_NtNtCs64AwlgGXCHI_10valknut_rs4core7scoringNtB5_13FeatureScorer14compute_scores
FN:464,_RNvMs0_NtNtCs64AwlgGXCHI_10valknut_rs4core7scoringNtB5_13FeatureScorer18calculate_priority
FN:452,_RNvMs0_NtNtCs64AwlgGXCHI_10valknut_rs4core7scoringNtB5_13FeatureScorer19get_category_weight
FN:481,_RNvMs0_NtNtCs64AwlgGXCHI_10valknut_rs4core7scoringNtB5_13FeatureScorer20calculate_confidence
FN:427,_RNvMs0_NtNtCs64AwlgGXCHI_10valknut_rs4core7scoringNtB5_13FeatureScorer31get_feature_category_and_weight
FN:344,_RNvMs0_NtNtCs64AwlgGXCHI_10valknut_rs4core7scoringNtB5_13FeatureScorer3fit
FN:336,_RNvMs0_NtNtCs64AwlgGXCHI_10valknut_rs4core7scoringNtB5_13FeatureScorer3new
FN:349,_RNvMs0_NtNtCs64AwlgGXCHI_10valknut_rs4core7scoringNtB5_13FeatureScorer5score
FN:531,_RNvMs1_NtNtCs64AwlgGXCHI_10valknut_rs4core7scoringNtB5_8Priority5value
FN:574,_RNvMs2_NtNtCs64AwlgGXCHI_10valknut_rs4core7scoringNtB5_13ScoringResult16is_high_priority
FN:579,_RNvMs2_NtNtCs64AwlgGXCHI_10valknut_rs4core7scoringNtB5_13ScoringResult17dominant_category
FN:569,_RNvMs2_NtNtCs64AwlgGXCHI_10valknut_rs4core7scoringNtB5_13ScoringResult17needs_refactoring
FN:587,_RNvMs2_NtNtCs64AwlgGXCHI_10valknut_rs4core7scoringNtB5_13ScoringResult25top_contributing_features
FN:309,_RNvMs_NtNtCs64AwlgGXCHI_10valknut_rs4core7scoringNtB4_17FeatureNormalizer14get_statistics
FN:230,_RNvMs_NtNtCs64AwlgGXCHI_10valknut_rs4core7scoringNtB4_17FeatureNormalizer15normalize_value
FN:314,_RNvMs_NtNtCs64AwlgGXCHI_10valknut_rs4core7scoringNtB4_17FeatureNormalizer18get_all_statistics
FN:319,_RNvMs_NtNtCs64AwlgGXCHI_10valknut_rs4core7scoringNtB4_17FeatureNormalizer23get_bayesian_normalizer
FN:294,_RNvMs_NtNtCs64AwlgGXCHI_10valknut_rs4core7scoringNtB4_17FeatureNormalizer27bayesian_fallback_normalize
FN:301,_RNvMs_NtNtCs64AwlgGXCHI_10valknut_rs4core7scoringNtB4_17FeatureNormalizer27report_bayesian_diagnostics
FN:169,_RNvMs_NtNtCs64AwlgGXCHI_10valknut_rs4core7scoringNtB4_17FeatureNormalizer3fit
FN:152,_RNvMs_NtNtCs64AwlgGXCHI_10valknut_rs4core7scoringNtB4_17FeatureNormalizer3new
FN:206,_RNvMs_NtNtCs64AwlgGXCHI_10valknut_rs4core7scoringNtB4_17FeatureNormalizer9normalize
FN:67,_RNCNvMNtNtCs64AwlgGXCHI_10valknut_rs4core7scoringNtB4_23NormalizationStatistics11from_values0B8_
FN:88,_RNCNvMNtNtCs64AwlgGXCHI_10valknut_rs4core7scoringNtB4_23NormalizationStatistics11from_valuess0_0B8_
FN:73,_RNCNvMNtNtCs64AwlgGXCHI_10valknut_rs4core7scoringNtB4_23NormalizationStatistics11from_valuess_0B8_
FN:145,_RNCNvMNtNtCs64AwlgGXCHI_10valknut_rs4core7scoringNtB4_23NormalizationStatistics15median_of_slice0B8_
FN:356,_RNCNvMs0_NtNtCs64AwlgGXCHI_10valknut_rs4core7scoringNtB7_13FeatureScorer5score0Bb_
FN:582,_RNCNvMs2_NtNtCs64AwlgGXCHI_10valknut_rs4core7scoringNtB7_13ScoringResult17dominant_category0Bb_
FN:583,_RNCNvMs2_NtNtCs64AwlgGXCHI_10valknut_rs4core7scoringNtB7_13ScoringResult17dominant_categorys_0Bb_
FN:589,_RNCNvMs2_NtNtCs64AwlgGXCHI_10valknut_rs4core7scoringNtB7_13ScoringResult25top_contributing_features0Bb_
FN:591,_RNCNvMs2_NtNtCs64AwlgGXCHI_10valknut_rs4core7scoringNtB7_13ScoringResult25top_contributing_featuress_0Bb_
FN:196,_RNCNvMs_NtNtCs64AwlgGXCHI_10valknut_rs4core7scoringNtB6_17FeatureNormalizer3fit0Ba_
FN:213,_RNCNvMs_NtNtCs64AwlgGXCHI_10valknut_rs4core7scoringNtB6_17FeatureNormalizer9normalize0Ba_
FN:602,_RNvXs3_NtNtCs64AwlgGXCHI_10valknut_rs4core7scoringNtNtB7_6config19NormalizationSchemeNtB5_22NormalizationSchemeExt9to_string
FN:667,_RNCNvNtNtNtCs64AwlgGXCHI_10valknut_rs4core7scoring5testss_23test_feature_normalizer0B9_
FNDA:7,_RNvNtNtNtCs64AwlgGXCHI_10valknut_rs4core7scoring5tests18create_test_config
FNDA:1,_RNvNtNtNtCs64AwlgGXCHI_10valknut_rs4core7scoring5testss_19test_feature_scorer
FNDA:1,_RNvNtNtNtCs64AwlgGXCHI_10valknut_rs4core7scoring5testss_19test_priority_value
FNDA:1,_RNvNtNtNtCs64AwlgGXCHI_10valknut_rs4core7scoring5testss_19test_scoring_result
FNDA:1,_RNvNtNtNtCs64AwlgGXCHI_10valknut_rs4core7scoring5testss_23test_feature_normalizer
FNDA:1,_RNvNtNtNtCs64AwlgGXCHI_10valknut_rs4core7scoring5testss_25test_priority_calculation
FNDA:1,_RNvNtNtNtCs64AwlgGXCHI_10valknut_rs4core7scoring5testss_29test_normalization_statistics
FNDA:1,_RNvNtNtNtCs64AwlgGXCHI_10valknut_rs4core7scoring5testss_34test_feature_scorer_compute_scores
FNDA:1,_RNvNtNtNtCs64AwlgGXCHI_10valknut_rs4core7scoring5testss_35test_normalization_statistics_empty
FNDA:1,_RNvNtNtNtCs64AwlgGXCHI_10valknut_rs4core7scoring5testss_36test_scoring_result_is_high_priority
FNDA:1,_RNvNtNtNtCs64AwlgGXCHI_10valknut_rs4core7scoring5testss_37test_scoring_result_needs_refactoring
FNDA:1,_RNvNtNtNtCs64AwlgGXCHI_10valknut_rs4core7scoring5testss_38test_feature_normalizer_get_statistics
FNDA:1,_RNvNtNtNtCs64AwlgGXCHI_10valknut_rs4core7scoring5testss_39test_feature_normalizer_normalize_value
FNDA:1,_RNvNtNtNtCs64AwlgGXCHI_10valknut_rs4core7scoring5testss_39test_feature_scorer_get_category_weight
FNDA:1,_RNvNtNtNtCs64AwlgGXCHI_10valknut_rs4core7scoring5testss_40test_normalization_statistics_percentile
FNDA:1,_RNvNtNtNtCs64AwlgGXCHI_10valknut_rs4core7scoring5testss_42test_feature_normalizer_get_all_statistics
FNDA:0,_RNvMs0_NtNtCs64AwlgGXCHI_10valknut_rs4core7scoringNtB5_13FeatureScorer12score_single
FNDA:0,_RNvMs0_NtNtCs64AwlgGXCHI_10valknut_rs4core7scoringNtB5_13FeatureScorer14get_normalizer
FNDA:47,_RNvMNtNtCs64AwlgGXCHI_10valknut_rs4core7scoringNtB2_23NormalizationStatistics10percentile
FNDA:11,_RNvMNtNtCs64AwlgGXCHI_10valknut_rs4core7scoringNtB2_23NormalizationStatistics11from_values
FNDA:11,_RNvMNtNtCs64AwlgGXCHI_10valknut_rs4core7scoringNtB2_23NormalizationStatistics15median_of_slice
FNDA:1,_RNvMNtNtCs64AwlgGXCHI_10valknut_rs4core7scoringNtB2_23NormalizationStatistics5empty
FNDA:3,_RNvMs0_NtNtCs64AwlgGXCHI_10valknut_rs4core7scoringNtB5_13FeatureScorer14compute_scores
FNDA:8,_RNvMs0_NtNtCs64AwlgGXCHI_10valknut_rs4core7scoringNtB5_13FeatureScorer18calculate_priority
FNDA:8,_RNvMs0_NtNtCs64AwlgGXCHI_10valknut_rs4core7scoringNtB5_13FeatureScorer19get_category_weight
FNDA:3,_RNvMs0_NtNtCs64AwlgGXCHI_10valknut_rs4core7scoringNtB5_13FeatureScorer20calculate_confidence
FNDA:4,_RNvMs0_NtNtCs64AwlgGXCHI_10valknut_rs4core7scoringNtB5_13FeatureScorer31get_feature_category_and_weight
FNDA:2,_RNvMs0_NtNtCs64AwlgGXCHI_10valknut_rs4core7scoringNtB5_13FeatureScorer3fit
FNDA:3,_RNvMs0_NtNtCs64AwlgGXCHI_10valknut_rs4core7scoringNtB5_13FeatureScorer3new
FNDA:1,_RNvMs0_NtNtCs64AwlgGXCHI_10valknut_rs4core7scoringNtB5_13FeatureScorer5score
FNDA:5,_RNvMs1_NtNtCs64AwlgGXCHI_10valknut_rs4core7scoringNtB5_8Priority5value
FNDA:3,_RNvMs2_NtNtCs64AwlgGXCHI_10valknut_rs4core7scoringNtB5_13ScoringResult16is_high_priority
FNDA:1,_RNvMs2_NtNtCs64AwlgGXCHI_10valknut_rs4core7scoringNtB5_13ScoringResult17dominant_category
FNDA:3,_RNvMs2_NtNtCs64AwlgGXCHI_10valknut_rs4core7scoringNtB5_13ScoringResult17needs_refactoring
FNDA:1,_RNvMs2_NtNtCs64AwlgGXCHI_10valknut_rs4core7scoringNtB5_13ScoringResult25top_contributing_features
FNDA:1,_RNvMs_NtNtCs64AwlgGXCHI_10valknut_rs4core7scoringNtB4_17FeatureNormalizer14get_statistics
FNDA:8,_RNvMs_NtNtCs64AwlgGXCHI_10valknut_rs4core7scoringNtB4_17FeatureNormalizer15normalize_value
FNDA:1,_RNvMs_NtNtCs64AwlgGXCHI_10valknut_rs4core7scoringNtB4_17FeatureNormalizer18get_all_statistics
FNDA:3,_RNvMs_NtNtCs64AwlgGXCHI_10valknut_rs4core7scoringNtB4_17FeatureNormalizer23get_bayesian_normalizer
FNDA:0,_RNvMs_NtNtCs64AwlgGXCHI_10valknut_rs4core7scoringNtB4_17FeatureNormalizer27bayesian_fallback_normalize
FNDA:0,_RNvMs_NtNtCs64AwlgGXCHI_10valknut_rs4core7scoringNtB4_17FeatureNormalizer27report_bayesian_diagnostics
FNDA:6,_RNvMs_NtNtCs64AwlgGXCHI_10valknut_rs4core7scoringNtB4_17FeatureNormalizer3fit
FNDA:7,_RNvMs_NtNtCs64AwlgGXCHI_10valknut_rs4core7scoringNtB4_17FeatureNormalizer3new
FNDA:2,_RNvMs_NtNtCs64AwlgGXCHI_10valknut_rs4core7scoringNtB4_17FeatureNormalizer9normalize
FNDA:24,_RNCNvMNtNtCs64AwlgGXCHI_10valknut_rs4core7scoringNtB4_23NormalizationStatistics11from_values0B8_
FNDA:34,_RNCNvMNtNtCs64AwlgGXCHI_10valknut_rs4core7scoringNtB4_23NormalizationStatistics11from_valuess0_0B8_
FNDA:34,_RNCNvMNtNtCs64AwlgGXCHI_10valknut_rs4core7scoringNtB4_23NormalizationStatistics11from_valuess_0B8_
FNDA:41,_RNCNvMNtNtCs64AwlgGXCHI_10valknut_rs4core7scoringNtB4_23NormalizationStatistics15median_of_slice0B8_
FNDA:2,_RNCNvMs0_NtNtCs64AwlgGXCHI_10valknut_rs4core7scoringNtB7_13FeatureScorer5score0Bb_
FNDA:1,_RNCNvMs2_NtNtCs64AwlgGXCHI_10valknut_rs4core7scoringNtB7_13ScoringResult17dominant_category0Bb_
FNDA:1,_RNCNvMs2_NtNtCs64AwlgGXCHI_10valknut_rs4core7scoringNtB7_13ScoringResult17dominant_categorys_0Bb_
FNDA:2,_RNCNvMs2_NtNtCs64AwlgGXCHI_10valknut_rs4core7scoringNtB7_13ScoringResult25top_contributing_features0Bb_
FNDA:1,_RNCNvMs2_NtNtCs64AwlgGXCHI_10valknut_rs4core7scoringNtB7_13ScoringResult25top_contributing_featuress_0Bb_
FNDA:9,_RNCNvMs_NtNtCs64AwlgGXCHI_10valknut_rs4core7scoringNtB6_17FeatureNormalizer3fit0Ba_
FNDA:5,_RNCNvMs_NtNtCs64AwlgGXCHI_10valknut_rs4core7scoringNtB6_17FeatureNormalizer9normalize0Ba_
FNDA:7,_RNvXs3_NtNtCs64AwlgGXCHI_10valknut_rs4core7scoringNtNtB7_6config19NormalizationSchemeNtB5_22NormalizationSchemeExt9to_string
FNDA:3,_RNCNvNtNtNtCs64AwlgGXCHI_10valknut_rs4core7scoring5testss_23test_feature_normalizer0B9_
FNF:57
FNH:53
DA:59,11
DA:60,11
DA:62,11
DA:63,0
DA:64,11
DA:67,24
DA:70,11
DA:71,11
DA:72,11
DA:73,34
DA:75,0
DA:77,11
DA:78,11
DA:79,11
DA:82,11
DA:83,11
DA:84,11
DA:85,11
DA:88,34
DA:89,11
DA:91,11
DA:92,11
DA:93,11
DA:94,11
DA:95,11
DA:96,11
DA:97,11
DA:98,11
DA:99,11
DA:100,11
DA:101,11
DA:102,11
DA:103,11
DA:104,11
DA:107,1
DA:108,1
DA:109,1
DA:110,1
DA:111,1
DA:112,1
DA:113,1
DA:114,1
DA:115,1
DA:116,1
DA:117,1
DA:118,1
DA:119,1
DA:120,1
DA:121,1
DA:124,47
DA:125,47
DA:126,0
DA:127,47
DA:129,47
DA:130,47
DA:131,47
DA:132,47
DA:134,47
DA:135,9
DA:137,38
DA:138,38
DA:140,47
DA:143,11
DA:144,11
DA:145,41
DA:146,11
DA:147,11
DA:152,7
DA:153,7
DA:154,7
DA:156,0
DA:158,7
DA:161,7
DA:162,7
DA:163,7
DA:164,7
DA:165,7
DA:166,7
DA:169,6
DA:170,6
DA:171,0
DA:172,6
DA:175,6
DA:176,0
DA:179,0
DA:180,0
DA:181,0
DA:182,0
DA:183,6
DA:186,6
DA:187,19
DA:188,32
DA:189,19
DA:190,19
DA:194,6
DA:195,6
DA:196,9
DA:197,9
DA:198,9
DA:199,9
DA:200,6
DA:202,6
DA:203,6
DA:206,2
DA:208,2
DA:209,0
DA:210,2
DA:213,5
DA:214,7
DA:215,7
DA:216,7
DA:217,7
DA:218,0
DA:219,0
DA:220,0
DA:221,0
DA:223,5
DA:224,5
DA:226,2
DA:227,2
DA:230,8
DA:231,8
DA:232,0
DA:233,8
DA:235,8
DA:237,8
DA:239,0
DA:241,0
DA:243,0
DA:246,8
DA:251,0
DA:252,0
DA:254,0
DA:255,0
DA:257,0
DA:260,0
DA:265,0
DA:267,0
DA:268,0
DA:269,0
DA:271,0
DA:274,0
DA:278,0
DA:286,0
DA:290,8
DA:291,8
DA:294,0
DA:297,0
DA:298,0
DA:301,0
DA:302,0
DA:303,0
DA:304,0
DA:305,0
DA:306,0
DA:309,1
DA:310,1
DA:311,1
DA:314,1
DA:315,1
DA:316,1
DA:319,3
DA:320,3
DA:321,3
DA:336,3
DA:337,3
DA:338,3
DA:339,3
DA:340,3
DA:341,3
DA:344,2
DA:345,2
DA:346,2
DA:349,1
DA:351,1
DA:354,1
DA:355,1
DA:356,2
DA:357,1
DA:359,1
DA:360,1
DA:363,0
DA:365,0
DA:368,0
DA:371,0
DA:372,0
DA:375,3
DA:376,3
DA:377,3
DA:380,3
DA:381,3
DA:383,7
DA:384,4
DA:385,4
DA:386,4
DA:387,4
DA:388,4
DA:389,4
DA:390,4
DA:391,4
DA:392,4
DA:393,4
DA:394,4
DA:395,4
DA:398,7
DA:399,4
DA:400,4
DA:401,4
DA:402,4
DA:406,3
DA:407,2
DA:409,1
DA:413,3
DA:415,3
DA:416,3
DA:417,3
DA:418,3
DA:419,3
DA:420,3
DA:421,3
DA:422,3
DA:423,3
DA:424,3
DA:427,4
DA:429,4
DA:430,4
DA:431,2
DA:433,2
DA:434,2
DA:436,0
DA:437,0
DA:439,0
DA:440,0
DA:442,0
DA:443,0
DA:445,0
DA:448,4
DA:449,4
DA:452,8
DA:453,8
DA:454,8
DA:455,5
DA:456,3
DA:457,2
DA:458,2
DA:459,2
DA:461,8
DA:464,8
DA:465,8
DA:467,8
DA:468,1
DA:469,7
DA:470,1
DA:471,6
DA:472,1
DA:473,5
DA:474,3
DA:476,2
DA:478,8
DA:481,3
DA:482,3
DA:483,3
DA:486,3
DA:487,0
DA:488,0
DA:490,0
DA:491,0
DA:492,0
DA:493,0
DA:494,0
DA:497,0
DA:498,0
DA:499,0
DA:501,0
DA:504,3
DA:506,3
DA:509,0
DA:510,0
DA:511,0
DA:531,5
DA:532,5
DA:533,1
DA:534,1
DA:535,1
DA:536,1
DA:537,1
DA:539,5
DA:569,3
DA:570,3
DA:571,3
DA:574,3
DA:575,3
DA:576,3
DA:579,1
DA:580,1
DA:581,1
DA:582,1
DA:583,1
DA:584,1
DA:587,1
DA:588,1
DA:589,2
DA:590,1
DA:591,1
DA:592,1
DA:593,1
DA:602,7
DA:603,7
DA:604,7
DA:605,0
DA:606,0
DA:607,0
DA:608,0
DA:609,0
DA:611,7
DA:619,7
DA:620,7
DA:621,7
DA:622,7
DA:623,7
DA:624,7
DA:625,7
DA:626,7
DA:627,7
DA:630,1
DA:631,1
DA:632,1
DA:634,1
DA:635,1
DA:636,1
DA:637,1
DA:638,1
DA:639,1
DA:642,1
DA:643,1
DA:644,1
DA:646,1
DA:647,1
DA:648,1
DA:649,1
DA:652,1
DA:653,1
DA:654,1
DA:657,1
DA:658,1
DA:661,1
DA:662,1
DA:663,1
DA:666,1
DA:667,3
DA:668,1
DA:669,1
DA:670,1
DA:671,1
DA:674,1
DA:675,1
DA:676,1
DA:678,1
DA:679,1
DA:680,1
DA:683,1
DA:684,1
DA:686,1
DA:687,1
DA:690,1
DA:691,1
DA:693,1
DA:696,1
DA:697,1
DA:699,1
DA:700,1
DA:701,1
DA:704,1
DA:705,1
DA:706,1
DA:707,1
DA:708,1
DA:709,1
DA:710,1
DA:713,1
DA:714,1
DA:715,1
DA:716,1
DA:717,1
DA:718,1
DA:719,1
DA:720,1
DA:721,1
DA:722,1
DA:724,1
DA:725,1
DA:727,1
DA:728,1
DA:730,1
DA:731,1
DA:733,1
DA:734,1
DA:735,1
DA:737,1
DA:738,1
DA:739,1
DA:742,1
DA:743,1
DA:744,1
DA:746,1
DA:747,1
DA:748,1
DA:751,1
DA:752,1
DA:754,1
DA:756,1
DA:757,1
DA:758,1
DA:759,1
DA:760,1
DA:761,1
DA:762,1
DA:763,1
DA:764,1
DA:765,1
DA:766,1
DA:767,1
DA:768,1
DA:769,1
DA:770,1
DA:771,1
DA:772,1
DA:773,1
DA:776,1
DA:777,1
DA:778,1
DA:780,1
DA:781,1
DA:782,1
DA:785,1
DA:786,1
DA:788,1
DA:790,1
DA:791,1
DA:792,1
DA:793,1
DA:794,1
DA:795,1
DA:796,1
DA:799,1
DA:800,1
DA:801,1
DA:803,1
DA:804,1
DA:805,1
DA:808,1
DA:809,1
DA:810,1
DA:811,1
DA:813,1
DA:815,1
DA:816,1
DA:817,1
DA:818,1
DA:819,1
DA:822,1
DA:823,1
DA:825,1
DA:826,1
DA:827,1
DA:828,1
DA:829,1
DA:830,1
DA:831,1
DA:834,1
DA:835,1
DA:836,1
DA:838,1
DA:839,1
DA:840,1
DA:841,1
DA:843,1
DA:844,1
DA:845,1
DA:846,1
DA:849,1
DA:850,1
DA:851,1
DA:853,1
DA:854,1
DA:855,1
DA:858,1
DA:859,1
DA:860,1
DA:861,1
DA:863,1
DA:864,1
DA:866,1
DA:869,1
DA:870,1
DA:873,1
DA:874,1
DA:875,1
DA:878,1
DA:879,1
DA:880,1
DA:883,1
DA:884,1
DA:887,1
DA:888,1
DA:889,1
DA:890,1
DA:891,1
DA:892,1
DA:893,1
DA:896,1
DA:897,1
DA:898,1
DA:899,1
DA:900,1
DA:901,1
DA:902,1
DA:903,1
DA:904,1
DA:905,1
DA:907,1
DA:908,1
DA:909,1
DA:910,1
DA:911,1
DA:912,1
DA:913,1
DA:914,1
DA:915,1
DA:917,1
DA:918,1
DA:919,1
DA:922,1
DA:923,1
DA:924,1
DA:925,1
DA:926,1
DA:927,1
DA:928,1
DA:929,1
DA:930,1
DA:931,1
DA:933,1
DA:934,1
DA:935,1
DA:936,1
DA:937,1
DA:938,1
DA:939,1
DA:940,1
DA:941,1
DA:943,1
DA:944,1
DA:945,1
BRF:0
BRH:0
LF:567
LH:493
end_of_record
SF:/home/nathan/Projects/valknut/src/detectors/complexity.rs
FN:710,_RNvMs1_NtNtCs64AwlgGXCHI_10valknut_rs9detectors10complexityNtB5_18ComplexityAnalyzer12analyze_file
FN:737,_RNvMs1_NtNtCs64AwlgGXCHI_10valknut_rs9detectors10complexityNtB5_18ComplexityAnalyzer13analyze_files
FN:1462,_RNvMs1_NtNtCs64AwlgGXCHI_10valknut_rs9detectors10complexityNtB5_18ComplexityAnalyzer14count_operands
FN:909,_RNvMs1_NtNtCs64AwlgGXCHI_10valknut_rs9detectors10complexityNtB5_18ComplexityAnalyzer15analyze_go_file
FN:829,_RNvMs1_NtNtCs64AwlgGXCHI_10valknut_rs9detectors10complexityNtB5_18ComplexityAnalyzer15analyze_js_file
FN:1425,_RNvMs1_NtNtCs64AwlgGXCHI_10valknut_rs9detectors10complexityNtB5_18ComplexityAnalyzer15count_operators
FN:751,_RNvMs1_NtNtCs64AwlgGXCHI_10valknut_rs9detectors10complexityNtB5_18ComplexityAnalyzer15detect_language
FN:1640,_RNvMs1_NtNtCs64AwlgGXCHI_10valknut_rs9detectors10complexityNtB5_18ComplexityAnalyzer15generate_issues
FN:1326,_RNvMs1_NtNtCs64AwlgGXCHI_10valknut_rs9detectors10complexityNtB5_18ComplexityAnalyzer16count_parameters
FN:1366,_RNvMs1_NtNtCs64AwlgGXCHI_10valknut_rs9detectors10complexityNtB5_18ComplexityAnalyzer16count_statements
FN:1132,_RNvMs1_NtNtCs64AwlgGXCHI_10valknut_rs9detectors10complexityNtB5_18ComplexityAnalyzer16extract_js_class
FN:881,_RNvMs1_NtNtCs64AwlgGXCHI_10valknut_rs9detectors10complexityNtB5_18ComplexityAnalyzer17analyze_rust_file
FN:1614,_RNvMs1_NtNtCs64AwlgGXCHI_10valknut_rs9detectors10complexityNtB5_18ComplexityAnalyzer18determine_severity
FN:777,_RNvMs1_NtNtCs64AwlgGXCHI_10valknut_rs9detectors10complexityNtB5_18ComplexityAnalyzer19analyze_python_file
FN:1352,_RNvMs1_NtNtCs64AwlgGXCHI_10valknut_rs9detectors10complexityNtB5_18ComplexityAnalyzer19count_lines_of_code
FN:1006,_RNvMs1_NtNtCs64AwlgGXCHI_10valknut_rs9detectors10complexityNtB5_18ComplexityAnalyzer19extract_js_entities
FN:1105,_RNvMs1_NtNtCs64AwlgGXCHI_10valknut_rs9detectors10complexityNtB5_18ComplexityAnalyzer19extract_js_function
FN:1091,_RNvMs1_NtNtCs64AwlgGXCHI_10valknut_rs9detectors10complexityNtB5_18ComplexityAnalyzer20extract_python_class
FN:1532,_RNvMs1_NtNtCs64AwlgGXCHI_10valknut_rs9detectors10complexityNtB5_18ComplexityAnalyzer23calculate_basic_metrics
FN:1283,_RNvMs1_NtNtCs64AwlgGXCHI_10valknut_rs9detectors10complexityNtB5_18ComplexityAnalyzer23calculate_nesting_depth
FN:937,_RNvMs1_NtNtCs64AwlgGXCHI_10valknut_rs9detectors10complexityNtB5_18ComplexityAnalyzer23extract_python_entities
FN:1081,_RNvMs1_NtNtCs64AwlgGXCHI_10valknut_rs9detectors10complexityNtB5_18ComplexityAnalyzer23extract_python_function
FN:1147,_RNvMs1_NtNtCs64AwlgGXCHI_10valknut_rs9detectors10complexityNtB5_18ComplexityAnalyzer24calculate_entity_metrics
FN:1721,_RNvMs1_NtNtCs64AwlgGXCHI_10valknut_rs9detectors10complexityNtB5_18ComplexityAnalyzer24generate_recommendations
FN:1392,_RNvMs1_NtNtCs64AwlgGXCHI_10valknut_rs9detectors10complexityNtB5_18ComplexityAnalyzer26calculate_halstead_metrics
FN:1238,_RNvMs1_NtNtCs64AwlgGXCHI_10valknut_rs9detectors10complexityNtB5_18ComplexityAnalyzer30calculate_cognitive_complexity
FN:1490,_RNvMs1_NtNtCs64AwlgGXCHI_10valknut_rs9detectors10complexityNtB5_18ComplexityAnalyzer30calculate_technical_debt_score
FN:1196,_RNvMs1_NtNtCs64AwlgGXCHI_10valknut_rs9detectors10complexityNtB5_18ComplexityAnalyzer31calculate_cyclomatic_complexity
FN:1517,_RNvMs1_NtNtCs64AwlgGXCHI_10valknut_rs9detectors10complexityNtB5_18ComplexityAnalyzer31calculate_maintainability_index
FN:1608,_RNvMs1_NtNtCs64AwlgGXCHI_10valknut_rs9detectors10complexityNtB5_18ComplexityAnalyzer33calculate_halstead_metrics_legacy
FN:700,_RNvMs1_NtNtCs64AwlgGXCHI_10valknut_rs9detectors10complexityNtB5_18ComplexityAnalyzer3new
FN:705,_RNvMs1_NtNtCs64AwlgGXCHI_10valknut_rs9detectors10complexityNtB5_18ComplexityAnalyzer7default
FN:55,_RNvXNtNtCs64AwlgGXCHI_10valknut_rs9detectors10complexityNtB2_16ComplexityConfigNtNtCs66KPHxksi63_4core7default7Default7default
FN:165,_RNvXs0_NtNtCs64AwlgGXCHI_10valknut_rs9detectors10complexityNtB5_15HalsteadMetricsNtNtCs66KPHxksi63_4core7default7Default7default
FN:149,_RNvXs_NtNtCs64AwlgGXCHI_10valknut_rs9detectors10complexityNtB4_17ComplexityMetricsNtNtCs66KPHxksi63_4core7default7Default7default
FN:343,_RNvNtNtNtCs64AwlgGXCHI_10valknut_rs9detectors10complexity5tests16create_temp_file
FN:327,_RNvNtNtNtCs64AwlgGXCHI_10valknut_rs9detectors10complexity5testss_20test_detect_language
FN:562,_RNvNtNtNtCs64AwlgGXCHI_10valknut_rs9detectors10complexity5testss_20test_generate_issues
FN:490,_RNvNtNtNtCs64AwlgGXCHI_10valknut_rs9detectors10complexity5testss_21test_count_parameters
FN:542,_RNvNtNtNtCs64AwlgGXCHI_10valknut_rs9detectors10complexity5testss_23test_determine_severity
FN:508,_RNvNtNtNtCs64AwlgGXCHI_10valknut_rs9detectors10complexity5testss_24test_count_lines_of_code
FN:353,_RNvNtNtNtCs64AwlgGXCHI_10valknut_rs9detectors10complexity5testss_26test_analyze_file_disabled
FN:364,_RNvNtNtNtCs64AwlgGXCHI_10valknut_rs9detectors10complexity5testss_26test_analyze_python_simple
FN:470,_RNvNtNtNtCs64AwlgGXCHI_10valknut_rs9detectors10complexity5testss_28test_calculate_nesting_depth
FN:618,_RNvNtNtNtCs64AwlgGXCHI_10valknut_rs9detectors10complexity5testss_29test_analyze_file_integration
FN:588,_RNvNtNtNtCs64AwlgGXCHI_10valknut_rs9detectors10complexity5testss_29test_generate_recommendations
FN:301,_RNvNtNtNtCs64AwlgGXCHI_10valknut_rs9detectors10complexity5testss_29test_halstead_metrics_default
FN:406,_RNvNtNtNtCs64AwlgGXCHI_10valknut_rs9detectors10complexity5testss_30test_analyze_javascript_simple
FN:276,_RNvNtNtNtCs64AwlgGXCHI_10valknut_rs9detectors10complexity5testss_30test_complexity_config_default
FN:288,_RNvNtNtNtCs64AwlgGXCHI_10valknut_rs9detectors10complexity5testss_31test_complexity_metrics_default
FN:317,_RNvNtNtNtCs64AwlgGXCHI_10valknut_rs9detectors10complexity5testss_33test_complexity_analyzer_creation
FN:523,_RNvNtNtNtCs64AwlgGXCHI_10valknut_rs9detectors10complexity5testss_35test_calculate_cognitive_complexity
FN:450,_RNvNtNtNtCs64AwlgGXCHI_10valknut_rs9detectors10complexity5testss_36test_calculate_cyclomatic_complexity
FN:922,_RNCNCNvMs1_NtNtCs64AwlgGXCHI_10valknut_rs9detectors10complexityNtB9_18ComplexityAnalyzer15analyze_go_file00Bd_
FN:865,_RNCNCNvMs1_NtNtCs64AwlgGXCHI_10valknut_rs9detectors10complexityNtB9_18ComplexityAnalyzer15analyze_js_file00Bd_
FN:894,_RNCNCNvMs1_NtNtCs64AwlgGXCHI_10valknut_rs9detectors10complexityNtB9_18ComplexityAnalyzer17analyze_rust_file00Bd_
FN:813,_RNCNCNvMs1_NtNtCs64AwlgGXCHI_10valknut_rs9detectors10complexityNtB9_18ComplexityAnalyzer19analyze_python_file00Bd_
FN:710,_RNCNvMs1_NtNtCs64AwlgGXCHI_10valknut_rs9detectors10complexityNtB7_18ComplexityAnalyzer12analyze_file0Bb_
FN:737,_RNCNvMs1_NtNtCs64AwlgGXCHI_10valknut_rs9detectors10complexityNtB7_18ComplexityAnalyzer13analyze_files0Bb_
FN:1476,_RNCNvMs1_NtNtCs64AwlgGXCHI_10valknut_rs9detectors10complexityNtB7_18ComplexityAnalyzer14count_operands0Bb_
FN:1480,_RNCNvMs1_NtNtCs64AwlgGXCHI_10valknut_rs9detectors10complexityNtB7_18ComplexityAnalyzer14count_operandss_0Bb_
FN:909,_RNCNvMs1_NtNtCs64AwlgGXCHI_10valknut_rs9detectors10complexityNtB7_18ComplexityAnalyzer15analyze_go_file0Bb_
FN:829,_RNCNvMs1_NtNtCs64AwlgGXCHI_10valknut_rs9detectors10complexityNtB7_18ComplexityAnalyzer15analyze_js_file0Bb_
FN:753,_RNCNvMs1_NtNtCs64AwlgGXCHI_10valknut_rs9detectors10complexityNtB7_18ComplexityAnalyzer15detect_language0Bb_
FN:1342,_RNCNvMs1_NtNtCs64AwlgGXCHI_10valknut_rs9detectors10complexityNtB7_18ComplexityAnalyzer16count_parameters0Bb_
FN:881,_RNCNvMs1_NtNtCs64AwlgGXCHI_10valknut_rs9detectors10complexityNtB7_18ComplexityAnalyzer17analyze_rust_file0Bb_
FN:777,_RNCNvMs1_NtNtCs64AwlgGXCHI_10valknut_rs9detectors10complexityNtB7_18ComplexityAnalyzer19analyze_python_file0Bb_
FN:1354,_RNCNvMs1_NtNtCs64AwlgGXCHI_10valknut_rs9detectors10complexityNtB7_18ComplexityAnalyzer19count_lines_of_code0Bb_
FN:1600,_RNCNvMs1_NtNtCs64AwlgGXCHI_10valknut_rs9detectors10complexityNtB7_18ComplexityAnalyzer23calculate_basic_metrics0Bb_
FN:1811,_RNCNvMs1_NtNtCs64AwlgGXCHI_10valknut_rs9detectors10complexityNtB7_18ComplexityAnalyzer24generate_recommendations0Bb_
FN:393,_RNCNCNvNtNtNtCs64AwlgGXCHI_10valknut_rs9detectors10complexity5testss_26test_analyze_python_simple00Bb_
FN:671,_RNCNCNvNtNtNtCs64AwlgGXCHI_10valknut_rs9detectors10complexity5testss_29test_analyze_file_integration00Bb_
FN:442,_RNCNCNvNtNtNtCs64AwlgGXCHI_10valknut_rs9detectors10complexity5testss_30test_analyze_javascript_simple00Bb_
FN:580,_RNCNvNtNtNtCs64AwlgGXCHI_10valknut_rs9detectors10complexity5testss_20test_generate_issues0B9_
FN:582,_RNCNvNtNtNtCs64AwlgGXCHI_10valknut_rs9detectors10complexity5testss_20test_generate_issuess0_0B9_
FN:583,_RNCNvNtNtNtCs64AwlgGXCHI_10valknut_rs9detectors10complexity5testss_20test_generate_issuess1_0B9_
FN:584,_RNCNvNtNtNtCs64AwlgGXCHI_10valknut_rs9detectors10complexity5testss_20test_generate_issuess2_0B9_
FN:581,_RNCNvNtNtNtCs64AwlgGXCHI_10valknut_rs9detectors10complexity5testss_20test_generate_issuess_0B9_
FN:353,_RNCNvNtNtNtCs64AwlgGXCHI_10valknut_rs9detectors10complexity5testss_26test_analyze_file_disabled0B9_
FN:364,_RNCNvNtNtNtCs64AwlgGXCHI_10valknut_rs9detectors10complexity5testss_26test_analyze_python_simple0B9_
FN:618,_RNCNvNtNtNtCs64AwlgGXCHI_10valknut_rs9detectors10complexity5testss_29test_analyze_file_integration0B9_
FN:611,_RNCNvNtNtNtCs64AwlgGXCHI_10valknut_rs9detectors10complexity5testss_29test_generate_recommendations0B9_
FN:614,_RNCNvNtNtNtCs64AwlgGXCHI_10valknut_rs9detectors10complexity5testss_29test_generate_recommendationss_0B9_
FN:406,_RNCNvNtNtNtCs64AwlgGXCHI_10valknut_rs9detectors10complexity5testss_30test_analyze_javascript_simple0B9_
FNDA:7,_RNvMs1_NtNtCs64AwlgGXCHI_10valknut_rs9detectors10complexityNtB5_18ComplexityAnalyzer12analyze_file
FNDA:4,_RNvMs1_NtNtCs64AwlgGXCHI_10valknut_rs9detectors10complexityNtB5_18ComplexityAnalyzer13analyze_files
FNDA:9,_RNvMs1_NtNtCs64AwlgGXCHI_10valknut_rs9detectors10complexityNtB5_18ComplexityAnalyzer14count_operands
FNDA:0,_RNvMs1_NtNtCs64AwlgGXCHI_10valknut_rs9detectors10complexityNtB5_18ComplexityAnalyzer15analyze_go_file
FNDA:1,_RNvMs1_NtNtCs64AwlgGXCHI_10valknut_rs9detectors10complexityNtB5_18ComplexityAnalyzer15analyze_js_file
FNDA:9,_RNvMs1_NtNtCs64AwlgGXCHI_10valknut_rs9detectors10complexityNtB5_18ComplexityAnalyzer15count_operators
FNDA:13,_RNvMs1_NtNtCs64AwlgGXCHI_10valknut_rs9detectors10complexityNtB5_18ComplexityAnalyzer15detect_language
FNDA:10,_RNvMs1_NtNtCs64AwlgGXCHI_10valknut_rs9detectors10complexityNtB5_18ComplexityAnalyzer15generate_issues
FNDA:12,_RNvMs1_NtNtCs64AwlgGXCHI_10valknut_rs9detectors10complexityNtB5_18ComplexityAnalyzer16count_parameters
FNDA:7,_RNvMs1_NtNtCs64AwlgGXCHI_10valknut_rs9detectors10complexityNtB5_18ComplexityAnalyzer16count_statements
FNDA:23,_RNvMs1_NtNtCs64AwlgGXCHI_10valknut_rs9detectors10complexityNtB5_18ComplexityAnalyzer16extract_js_class
FNDA:2,_RNvMs1_NtNtCs64AwlgGXCHI_10valknut_rs9detectors10complexityNtB5_18ComplexityAnalyzer17analyze_rust_file
FNDA:10,_RNvMs1_NtNtCs64AwlgGXCHI_10valknut_rs9detectors10complexityNtB5_18ComplexityAnalyzer18determine_severity
FNDA:3,_RNvMs1_NtNtCs64AwlgGXCHI_10valknut_rs9detectors10complexityNtB5_18ComplexityAnalyzer19analyze_python_file
FNDA:10,_RNvMs1_NtNtCs64AwlgGXCHI_10valknut_rs9detectors10complexityNtB5_18ComplexityAnalyzer19count_lines_of_code
FNDA:1,_RNvMs1_NtNtCs64AwlgGXCHI_10valknut_rs9detectors10complexityNtB5_18ComplexityAnalyzer19extract_js_entities
FNDA:23,_RNvMs1_NtNtCs64AwlgGXCHI_10valknut_rs9detectors10complexityNtB5_18ComplexityAnalyzer19extract_js_function
FNDA:61,_RNvMs1_NtNtCs64AwlgGXCHI_10valknut_rs9detectors10complexityNtB5_18ComplexityAnalyzer20extract_python_class
FNDA:2,_RNvMs1_NtNtCs64AwlgGXCHI_10valknut_rs9detectors10complexityNtB5_18ComplexityAnalyzer23calculate_basic_metrics
FNDA:10,_RNvMs1_NtNtCs64AwlgGXCHI_10valknut_rs9detectors10complexityNtB5_18ComplexityAnalyzer23calculate_nesting_depth
FNDA:3,_RNvMs1_NtNtCs64AwlgGXCHI_10valknut_rs9detectors10complexityNtB5_18ComplexityAnalyzer23extract_python_entities
FNDA:61,_RNvMs1_NtNtCs64AwlgGXCHI_10valknut_rs9detectors10complexityNtB5_18ComplexityAnalyzer23extract_python_function
FNDA:7,_RNvMs1_NtNtCs64AwlgGXCHI_10valknut_rs9detectors10complexityNtB5_18ComplexityAnalyzer24calculate_entity_metrics
FNDA:10,_RNvMs1_NtNtCs64AwlgGXCHI_10valknut_rs9detectors10complexityNtB5_18ComplexityAnalyzer24generate_recommendations
FNDA:9,_RNvMs1_NtNtCs64AwlgGXCHI_10valknut_rs9detectors10complexityNtB5_18ComplexityAnalyzer26calculate_halstead_metrics
FNDA:11,_RNvMs1_NtNtCs64AwlgGXCHI_10valknut_rs9detectors10complexityNtB5_18ComplexityAnalyzer30calculate_cognitive_complexity
FNDA:9,_RNvMs1_NtNtCs64AwlgGXCHI_10valknut_rs9detectors10complexityNtB5_18ComplexityAnalyzer30calculate_technical_debt_score
FNDA:10,_RNvMs1_NtNtCs64AwlgGXCHI_10valknut_rs9detectors10complexityNtB5_18ComplexityAnalyzer31calculate_cyclomatic_complexity
FNDA:9,_RNvMs1_NtNtCs64AwlgGXCHI_10valknut_rs9detectors10complexityNtB5_18ComplexityAnalyzer31calculate_maintainability_index
FNDA:2,_RNvMs1_NtNtCs64AwlgGXCHI_10valknut_rs9detectors10complexityNtB5_18ComplexityAnalyzer33calculate_halstead_metrics_legacy
FNDA:38,_RNvMs1_NtNtCs64AwlgGXCHI_10valknut_rs9detectors10complexityNtB5_18ComplexityAnalyzer3new
FNDA:13,_RNvMs1_NtNtCs64AwlgGXCHI_10valknut_rs9detectors10complexityNtB5_18ComplexityAnalyzer7default
FNDA:39,_RNvXNtNtCs64AwlgGXCHI_10valknut_rs9detectors10complexityNtB2_16ComplexityConfigNtNtCs66KPHxksi63_4core7default7Default7default
FNDA:4,_RNvXs0_NtNtCs64AwlgGXCHI_10valknut_rs9detectors10complexityNtB5_15HalsteadMetricsNtNtCs66KPHxksi63_4core7default7Default7default
FNDA:1,_RNvXs_NtNtCs64AwlgGXCHI_10valknut_rs9detectors10complexityNtB4_17ComplexityMetricsNtNtCs66KPHxksi63_4core7default7Default7default
FNDA:4,_RNvNtNtNtCs64AwlgGXCHI_10valknut_rs9detectors10complexity5tests16create_temp_file
FNDA:1,_RNvNtNtNtCs64AwlgGXCHI_10valknut_rs9detectors10complexity5testss_20test_detect_language
FNDA:1,_RNvNtNtNtCs64AwlgGXCHI_10valknut_rs9detectors10complexity5testss_20test_generate_issues
FNDA:1,_RNvNtNtNtCs64AwlgGXCHI_10valknut_rs9detectors10complexity5testss_21test_count_parameters
FNDA:1,_RNvNtNtNtCs64AwlgGXCHI_10valknut_rs9detectors10complexity5testss_23test_determine_severity
FNDA:1,_RNvNtNtNtCs64AwlgGXCHI_10valknut_rs9detectors10complexity5testss_24test_count_lines_of_code
FNDA:1,_RNvNtNtNtCs64AwlgGXCHI_10valknut_rs9detectors10complexity5testss_26test_analyze_file_disabled
FNDA:1,_RNvNtNtNtCs64AwlgGXCHI_10valknut_rs9detectors10complexity5testss_26test_analyze_python_simple
FNDA:1,_RNvNtNtNtCs64AwlgGXCHI_10valknut_rs9detectors10complexity5testss_28test_calculate_nesting_depth
FNDA:1,_RNvNtNtNtCs64AwlgGXCHI_10valknut_rs9detectors10complexity5testss_29test_analyze_file_integration
FNDA:1,_RNvNtNtNtCs64AwlgGXCHI_10valknut_rs9detectors10complexity5testss_29test_generate_recommendations
FNDA:1,_RNvNtNtNtCs64AwlgGXCHI_10valknut_rs9detectors10complexity5testss_29test_halstead_metrics_default
FNDA:1,_RNvNtNtNtCs64AwlgGXCHI_10valknut_rs9detectors10complexity5testss_30test_analyze_javascript_simple
FNDA:1,_RNvNtNtNtCs64AwlgGXCHI_10valknut_rs9detectors10complexity5testss_30test_complexity_config_default
FNDA:1,_RNvNtNtNtCs64AwlgGXCHI_10valknut_rs9detectors10complexity5testss_31test_complexity_metrics_default
FNDA:1,_RNvNtNtNtCs64AwlgGXCHI_10valknut_rs9detectors10complexity5testss_33test_complexity_analyzer_creation
FNDA:1,_RNvNtNtNtCs64AwlgGXCHI_10valknut_rs9detectors10complexity5testss_35test_calculate_cognitive_complexity
FNDA:1,_RNvNtNtNtCs64AwlgGXCHI_10valknut_rs9detectors10complexity5testss_36test_calculate_cyclomatic_complexity
FNDA:0,_RNCNCNvMs1_NtNtCs64AwlgGXCHI_10valknut_rs9detectors10complexityNtB9_18ComplexityAnalyzer15analyze_go_file00Bd_
FNDA:0,_RNCNCNvMs1_NtNtCs64AwlgGXCHI_10valknut_rs9detectors10complexityNtB9_18ComplexityAnalyzer15analyze_js_file00Bd_
FNDA:2,_RNCNCNvMs1_NtNtCs64AwlgGXCHI_10valknut_rs9detectors10complexityNtB9_18ComplexityAnalyzer17analyze_rust_file00Bd_
FNDA:1,_RNCNCNvMs1_NtNtCs64AwlgGXCHI_10valknut_rs9detectors10complexityNtB9_18ComplexityAnalyzer19analyze_python_file00Bd_
FNDA:7,_RNCNvMs1_NtNtCs64AwlgGXCHI_10valknut_rs9detectors10complexityNtB7_18ComplexityAnalyzer12analyze_file0Bb_
FNDA:4,_RNCNvMs1_NtNtCs64AwlgGXCHI_10valknut_rs9detectors10complexityNtB7_18ComplexityAnalyzer13analyze_files0Bb_
FNDA:516,_RNCNvMs1_NtNtCs64AwlgGXCHI_10valknut_rs9detectors10complexityNtB7_18ComplexityAnalyzer14count_operands0Bb_
FNDA:110,_RNCNvMs1_NtNtCs64AwlgGXCHI_10valknut_rs9detectors10complexityNtB7_18ComplexityAnalyzer14count_operandss_0Bb_
FNDA:0,_RNCNvMs1_NtNtCs64AwlgGXCHI_10valknut_rs9detectors10complexityNtB7_18ComplexityAnalyzer15analyze_go_file0Bb_
FNDA:1,_RNCNvMs1_NtNtCs64AwlgGXCHI_10valknut_rs9detectors10complexityNtB7_18ComplexityAnalyzer15analyze_js_file0Bb_
FNDA:12,_RNCNvMs1_NtNtCs64AwlgGXCHI_10valknut_rs9detectors10complexityNtB7_18ComplexityAnalyzer15detect_language0Bb_
FNDA:31,_RNCNvMs1_NtNtCs64AwlgGXCHI_10valknut_rs9detectors10complexityNtB7_18ComplexityAnalyzer16count_parameters0Bb_
FNDA:2,_RNCNvMs1_NtNtCs64AwlgGXCHI_10valknut_rs9detectors10complexityNtB7_18ComplexityAnalyzer17analyze_rust_file0Bb_
FNDA:3,_RNCNvMs1_NtNtCs64AwlgGXCHI_10valknut_rs9detectors10complexityNtB7_18ComplexityAnalyzer19analyze_python_file0Bb_
FNDA:56,_RNCNvMs1_NtNtCs64AwlgGXCHI_10valknut_rs9detectors10complexityNtB7_18ComplexityAnalyzer19count_lines_of_code0Bb_
FNDA:2,_RNCNvMs1_NtNtCs64AwlgGXCHI_10valknut_rs9detectors10complexityNtB7_18ComplexityAnalyzer23calculate_basic_metrics0Bb_
FNDA:5,_RNCNvMs1_NtNtCs64AwlgGXCHI_10valknut_rs9detectors10complexityNtB7_18ComplexityAnalyzer24generate_recommendations0Bb_
FNDA:2,_RNCNCNvNtNtNtCs64AwlgGXCHI_10valknut_rs9detectors10complexity5testss_26test_analyze_python_simple00Bb_
FNDA:1,_RNCNCNvNtNtNtCs64AwlgGXCHI_10valknut_rs9detectors10complexity5testss_29test_analyze_file_integration00Bb_
FNDA:2,_RNCNCNvNtNtNtCs64AwlgGXCHI_10valknut_rs9detectors10complexity5testss_30test_analyze_javascript_simple00Bb_
FNDA:1,_RNCNvNtNtNtCs64AwlgGXCHI_10valknut_rs9detectors10complexity5testss_20test_generate_issues0B9_
FNDA:3,_RNCNvNtNtNtCs64AwlgGXCHI_10valknut_rs9detectors10complexity5testss_20test_generate_issuess0_0B9_
FNDA:4,_RNCNvNtNtNtCs64AwlgGXCHI_10valknut_rs9detectors10complexity5testss_20test_generate_issuess1_0B9_
FNDA:5,_RNCNvNtNtNtCs64AwlgGXCHI_10valknut_rs9detectors10complexity5testss_20test_generate_issuess2_0B9_
FNDA:2,_RNCNvNtNtNtCs64AwlgGXCHI_10valknut_rs9detectors10complexity5testss_20test_generate_issuess_0B9_
FNDA:1,_RNCNvNtNtNtCs64AwlgGXCHI_10valknut_rs9detectors10complexity5testss_26test_analyze_file_disabled0B9_
FNDA:1,_RNCNvNtNtNtCs64AwlgGXCHI_10valknut_rs9detectors10complexity5testss_26test_analyze_python_simple0B9_
FNDA:1,_RNCNvNtNtNtCs64AwlgGXCHI_10valknut_rs9detectors10complexity5testss_29test_analyze_file_integration0B9_
FNDA:1,_RNCNvNtNtNtCs64AwlgGXCHI_10valknut_rs9detectors10complexity5testss_29test_generate_recommendations0B9_
FNDA:2,_RNCNvNtNtNtCs64AwlgGXCHI_10valknut_rs9detectors10complexity5testss_29test_generate_recommendationss_0B9_
FNDA:1,_RNCNvNtNtNtCs64AwlgGXCHI_10valknut_rs9detectors10complexity5testss_30test_analyze_javascript_simple0B9_
FNF:84
FNH:80
DA:55,39
DA:56,39
DA:57,39
DA:58,39
DA:59,39
DA:60,39
DA:61,39
DA:62,39
DA:63,39
DA:64,39
DA:65,39
DA:66,39
DA:67,39
DA:68,39
DA:69,39
DA:70,39
DA:71,39
DA:72,39
DA:73,39
DA:74,39
DA:75,39
DA:76,39
DA:77,39
DA:78,39
DA:79,39
DA:80,39
DA:81,39
DA:82,39
DA:83,39
DA:84,39
DA:85,39
DA:86,39
DA:87,39
DA:88,39
DA:89,39
DA:90,39
DA:91,39
DA:92,39
DA:93,39
DA:94,39
DA:95,39
DA:149,1
DA:150,1
DA:151,1
DA:152,1
DA:153,1
DA:154,1
DA:155,1
DA:156,1
DA:157,1
DA:158,1
DA:159,1
DA:160,1
DA:161,1
DA:165,4
DA:166,4
DA:167,4
DA:168,4
DA:169,4
DA:170,4
DA:171,4
DA:172,4
DA:173,4
DA:174,4
DA:175,4
DA:176,4
DA:177,4
DA:178,4
DA:179,4
DA:276,1
DA:277,1
DA:278,1
DA:279,1
DA:280,1
DA:281,1
DA:282,1
DA:283,1
DA:284,1
DA:285,1
DA:288,1
DA:289,1
DA:290,1
DA:291,1
DA:292,1
DA:293,1
DA:294,1
DA:295,1
DA:296,1
DA:297,1
DA:298,1
DA:301,1
DA:302,1
DA:303,1
DA:304,1
DA:305,1
DA:306,1
DA:307,1
DA:308,1
DA:309,1
DA:310,1
DA:311,1
DA:312,1
DA:313,1
DA:314,1
DA:317,1
DA:318,1
DA:319,1
DA:320,1
DA:322,1
DA:323,1
DA:324,1
DA:327,1
DA:328,1
DA:330,1
DA:331,1
DA:332,1
DA:333,1
DA:334,1
DA:337,1
DA:340,1
DA:341,1
DA:343,4
DA:344,4
DA:345,4
DA:346,4
DA:347,4
DA:348,4
DA:349,4
DA:350,4
DA:353,1
DA:354,1
DA:355,1
DA:356,1
DA:358,1
DA:359,1
DA:360,1
DA:361,1
DA:364,1
DA:365,1
DA:367,1
DA:368,1
DA:369,1
DA:370,1
DA:371,1
DA:372,1
DA:373,1
DA:374,1
DA:375,1
DA:376,1
DA:377,1
DA:378,1
DA:379,1
DA:380,1
DA:381,1
DA:382,1
DA:384,1
DA:385,1
DA:386,1
DA:389,1
DA:392,1
DA:393,2
DA:394,1
DA:397,1
DA:398,0
DA:399,1
DA:400,0
DA:401,1
DA:402,1
DA:403,1
DA:406,1
DA:407,1
DA:409,1
DA:410,1
DA:411,1
DA:412,1
DA:413,1
DA:414,1
DA:415,1
DA:416,1
DA:417,1
DA:418,1
DA:419,1
DA:420,1
DA:421,1
DA:422,1
DA:423,1
DA:424,1
DA:425,1
DA:426,1
DA:427,1
DA:428,1
DA:429,1
DA:430,1
DA:431,1
DA:433,1
DA:434,1
DA:435,1
DA:438,1
DA:441,1
DA:442,2
DA:443,1
DA:444,1
DA:445,1
DA:446,1
DA:447,1
DA:450,1
DA:451,1
DA:454,1
DA:455,1
DA:456,1
DA:459,1
DA:460,1
DA:461,1
DA:464,1
DA:465,1
DA:466,1
DA:467,1
DA:470,1
DA:471,1
DA:474,1
DA:475,1
DA:476,1
DA:479,1
DA:480,1
DA:481,1
DA:484,1
DA:485,1
DA:486,1
DA:487,1
DA:490,1
DA:491,1
DA:494,1
DA:497,1
DA:500,1
DA:501,1
DA:504,1
DA:505,1
DA:508,1
DA:509,1
DA:511,1
DA:512,1
DA:514,1
DA:515,1
DA:518,1
DA:519,1
DA:520,1
DA:523,1
DA:524,1
DA:527,1
DA:528,1
DA:531,1
DA:532,1
DA:535,1
DA:536,1
DA:537,1
DA:538,1
DA:539,1
DA:542,1
DA:543,1
DA:544,1
DA:545,1
DA:546,1
DA:547,1
DA:548,1
DA:549,1
DA:550,1
DA:551,1
DA:552,1
DA:553,1
DA:554,1
DA:556,1
DA:558,1
DA:559,1
DA:562,1
DA:563,1
DA:564,1
DA:565,1
DA:566,1
DA:567,1
DA:568,1
DA:569,1
DA:570,1
DA:571,1
DA:572,1
DA:573,1
DA:574,1
DA:576,1
DA:577,1
DA:580,1
DA:581,2
DA:582,3
DA:583,4
DA:584,5
DA:585,1
DA:588,1
DA:589,1
DA:590,1
DA:591,1
DA:592,1
DA:593,1
DA:594,1
DA:595,1
DA:596,1
DA:597,1
DA:598,1
DA:599,1
DA:600,1
DA:601,1
DA:602,1
DA:603,1
DA:604,1
DA:607,1
DA:608,1
DA:611,1
DA:614,2
DA:615,1
DA:618,1
DA:619,1
DA:621,1
DA:622,1
DA:623,1
DA:624,1
DA:625,1
DA:626,1
DA:627,1
DA:628,1
DA:629,1
DA:630,1
DA:631,1
DA:632,1
DA:633,1
DA:634,1
DA:635,1
DA:636,1
DA:637,1
DA:638,1
DA:639,1
DA:640,1
DA:641,1
DA:642,1
DA:643,1
DA:644,1
DA:645,1
DA:646,1
DA:647,1
DA:648,1
DA:649,1
DA:650,1
DA:651,1
DA:652,1
DA:653,1
DA:654,1
DA:655,1
DA:656,1
DA:657,1
DA:658,1
DA:659,1
DA:660,1
DA:661,1
DA:662,1
DA:663,1
DA:664,1
DA:666,1
DA:667,1
DA:668,1
DA:670,1
DA:671,1
DA:672,1
DA:675,1
DA:676,1
DA:677,1
DA:678,1
DA:680,1
DA:683,1
DA:690,1
DA:700,38
DA:701,38
DA:702,38
DA:705,13
DA:706,13
DA:707,13
DA:710,7
DA:711,7
DA:712,1
DA:713,6
DA:715,6
DA:718,6
DA:721,6
DA:724,6
DA:725,6
DA:726,3
DA:727,2
DA:728,0
DA:730,0
DA:731,0
DA:734,7
DA:737,4
DA:738,4
DA:740,7
DA:741,3
DA:742,3
DA:743,0
DA:747,4
DA:748,4
DA:751,13
DA:752,13
DA:753,13
DA:754,13
DA:756,13
DA:757,13
DA:758,9
DA:759,7
DA:760,6
DA:761,3
DA:762,2
DA:763,2
DA:764,2
DA:765,2
DA:766,2
DA:769,13
DA:770,2
DA:771,11
DA:773,11
DA:774,13
DA:777,3
DA:778,3
DA:780,3
DA:783,3
DA:785,7
DA:786,4
DA:787,4
DA:788,4
DA:789,4
DA:790,4
DA:791,4
DA:792,4
DA:793,4
DA:794,4
DA:795,4
DA:796,4
DA:797,4
DA:798,4
DA:799,4
DA:800,4
DA:801,4
DA:804,3
DA:805,1
DA:806,1
DA:807,1
DA:808,1
DA:810,1
DA:811,1
DA:812,1
DA:813,1
DA:814,1
DA:815,1
DA:816,1
DA:818,1
DA:819,1
DA:820,1
DA:821,1
DA:823,2
DA:825,3
DA:826,3
DA:829,1
DA:830,1
DA:832,1
DA:835,1
DA:837,3
DA:838,2
DA:839,2
DA:840,2
DA:841,2
DA:842,2
DA:843,2
DA:844,2
DA:845,2
DA:846,2
DA:847,2
DA:848,2
DA:849,2
DA:850,2
DA:851,2
DA:852,2
DA:853,2
DA:856,1
DA:857,0
DA:858,0
DA:859,0
DA:860,0
DA:862,0
DA:863,0
DA:864,0
DA:865,0
DA:866,0
DA:867,0
DA:868,0
DA:870,0
DA:871,0
DA:872,0
DA:873,0
DA:875,1
DA:877,1
DA:878,1
DA:881,2
DA:882,2
DA:884,2
DA:886,2
DA:887,2
DA:888,2
DA:889,2
DA:891,2
DA:892,2
DA:893,2
DA:894,2
DA:895,2
DA:896,2
DA:897,2
DA:899,2
DA:900,2
DA:901,2
DA:902,2
DA:905,2
DA:906,2
DA:909,0
DA:910,0
DA:912,0
DA:914,0
DA:915,0
DA:916,0
DA:917,0
DA:919,0
DA:920,0
DA:921,0
DA:922,0
DA:923,0
DA:924,0
DA:925,0
DA:927,0
DA:928,0
DA:929,0
DA:930,0
DA:933,0
DA:934,0
DA:937,3
DA:938,3
DA:939,3
DA:941,61
DA:942,61
DA:945,61
DA:946,3
DA:947,3
DA:950,3
DA:951,3
DA:952,3
DA:953,3
DA:956,3
DA:957,3
DA:958,3
DA:959,0
DA:960,3
DA:961,0
DA:962,0
DA:965,3
DA:966,3
DA:967,3
DA:968,3
DA:969,3
DA:970,3
DA:971,58
DA:974,61
DA:975,1
DA:976,1
DA:979,1
DA:980,1
DA:981,1
DA:982,1
DA:985,1
DA:986,1
DA:987,1
DA:988,0
DA:989,1
DA:990,0
DA:991,0
DA:994,1
DA:995,1
DA:996,1
DA:997,1
DA:998,1
DA:999,1
DA:1000,60
DA:1003,3
DA:1004,3
DA:1006,1
DA:1007,1
DA:1008,1
DA:1010,23
DA:1011,23
DA:1014,23
DA:1015,2
DA:1016,2
DA:1017,2
DA:1020,42
DA:1021,40
DA:1022,40
DA:1023,40
DA:1026,40
DA:1027,40
DA:1029,40
DA:1032,40
DA:1033,0
DA:1034,40
DA:1037,2
DA:1038,2
DA:1039,2
DA:1040,2
DA:1041,2
DA:1042,2
DA:1043,21
DA:1046,23
DA:1047,0
DA:1048,0
DA:1049,0
DA:1052,0
DA:1053,0
DA:1054,0
DA:1055,0
DA:1058,0
DA:1059,0
DA:1061,0
DA:1064,0
DA:1065,0
DA:1066,0
DA:1069,0
DA:1070,0
DA:1071,0
DA:1072,0
DA:1073,0
DA:1074,0
DA:1075,23
DA:1078,1
DA:1079,1
DA:1081,61
DA:1082,61
DA:1083,3
DA:1084,3
DA:1085,3
DA:1087,58
DA:1089,61
DA:1091,61
DA:1092,61
DA:1093,1
DA:1094,1
DA:1095,0
DA:1097,1
DA:1099,1
DA:1101,60
DA:1103,61
DA:1105,23
DA:1107,23
DA:1108,2
DA:1109,2
DA:1110,2
DA:1111,21
DA:1113,0
DA:1114,0
DA:1115,0
DA:1116,0
DA:1117,0
DA:1118,0
DA:1119,0
DA:1120,0
DA:1122,0
DA:1125,0
DA:1128,21
DA:1130,23
DA:1132,23
DA:1133,23
DA:1134,0
DA:1135,0
DA:1136,0
DA:1138,0
DA:1140,0
DA:1142,23
DA:1144,23
DA:1147,7
DA:1148,7
DA:1149,7
DA:1150,7
DA:1151,7
DA:1152,7
DA:1153,7
DA:1156,7
DA:1159,7
DA:1160,7
DA:1161,7
DA:1162,7
DA:1163,7
DA:1164,7
DA:1165,7
DA:1166,7
DA:1167,7
DA:1168,7
DA:1169,7
DA:1171,7
DA:1172,7
DA:1173,7
DA:1174,7
DA:1175,7
DA:1176,7
DA:1177,7
DA:1178,7
DA:1179,7
DA:1180,7
DA:1181,7
DA:1183,7
DA:1184,7
DA:1185,7
DA:1186,7
DA:1187,7
DA:1188,7
DA:1189,7
DA:1190,7
DA:1191,7
DA:1192,7
DA:1193,7
DA:1194,7
DA:1196,10
DA:1197,10
DA:1199,48
DA:1200,48
DA:1201,48
DA:1202,3
DA:1203,45
DA:1206,45
DA:1207,10
DA:1208,35
DA:1209,45
DA:1210,0
DA:1211,45
DA:1212,45
DA:1213,0
DA:1214,45
DA:1215,45
DA:1216,1
DA:1217,44
DA:1218,45
DA:1219,5
DA:1220,40
DA:1221,45
DA:1222,0
DA:1223,45
DA:1224,45
DA:1225,0
DA:1226,45
DA:1229,45
DA:1230,45
DA:1231,45
DA:1232,45
DA:1235,10
DA:1236,10
DA:1238,11
DA:1239,11
DA:1240,11
DA:1243,11
DA:1244,11
DA:1246,1160
DA:1247,1149
DA:1249,1149
DA:1250,20
DA:1251,20
DA:1252,1109
DA:1256,1149
DA:1257,1127
DA:1259,1127
DA:1260,13
DA:1261,13
DA:1262,1114
DA:1263,4
DA:1264,4
DA:1265,1110
DA:1266,0
DA:1267,0
DA:1268,1110
DA:1269,0
DA:1270,0
DA:1271,1110
DA:1272,0
DA:1273,0
DA:1274,1110
DA:1275,22
DA:1277,1149
DA:1280,11
DA:1281,11
DA:1283,10
DA:1284,10
DA:1285,10
DA:1288,10
DA:1289,10
DA:1291,1163
DA:1292,1163
DA:1293,0
DA:1294,0
DA:1295,1163
DA:1297,1163
DA:1298,0
DA:1299,0
DA:1300,1163
DA:1302,1163
DA:1303,0
DA:1304,0
DA:1305,1163
DA:1307,1163
DA:1308,1163
DA:1309,19
DA:1310,19
DA:1311,1144
DA:1312,19
DA:1313,1125
DA:1314,0
DA:1318,48
DA:1319,48
DA:1320,48
DA:1321,48
DA:1323,10
DA:1324,10
DA:1326,12
DA:1327,12
DA:1328,12
DA:1331,12
DA:1332,1
DA:1334,11
DA:1335,11
DA:1336,11
DA:1337,11
DA:1338,4
DA:1339,7
DA:1342,31
DA:1343,7
DA:1344,0
DA:1345,0
DA:1346,1
DA:1349,1
DA:1350,12
DA:1352,10
DA:1353,10
DA:1354,56
DA:1355,56
DA:1356,56
DA:1357,52
DA:1358,50
DA:1359,50
DA:1360,50
DA:1361,50
DA:1362,56
DA:1363,10
DA:1364,10
DA:1366,7
DA:1367,7
DA:1369,45
DA:1370,45
DA:1371,45
DA:1372,3
DA:1373,42
DA:1376,42
DA:1377,35
DA:1378,31
DA:1379,27
DA:1380,27
DA:1381,19
DA:1382,19
DA:1383,19
DA:1384,23
DA:1385,23
DA:1386,23
DA:1389,7
DA:1390,7
DA:1392,9
DA:1394,9
DA:1395,9
DA:1397,9
DA:1398,9
DA:1399,9
DA:1400,9
DA:1402,9
DA:1403,9
DA:1404,9
DA:1405,9
DA:1406,9
DA:1407,9
DA:1408,9
DA:1410,9
DA:1411,9
DA:1412,9
DA:1413,9
DA:1414,9
DA:1415,9
DA:1416,9
DA:1417,9
DA:1418,9
DA:1419,9
DA:1420,9
DA:1421,9
DA:1422,9
DA:1423,9
DA:1425,9
DA:1426,9
DA:1428,9
DA:1429,9
DA:1430,5
DA:1431,5
DA:1432,5
DA:1433,5
DA:1434,5
DA:1436,4
DA:1437,2
DA:1438,2
DA:1439,2
DA:1440,2
DA:1441,2
DA:1443,2
DA:1444,2
DA:1445,2
DA:1446,2
DA:1447,2
DA:1448,2
DA:1452,276
DA:1453,267
DA:1454,267
DA:1455,38
DA:1456,229
DA:1459,9
DA:1460,9
DA:1462,9
DA:1463,9
DA:1466,47
DA:1467,47
DA:1468,47
DA:1469,3
DA:1470,44
DA:1473,44
DA:1474,205
DA:1475,161
DA:1476,516
DA:1477,161
DA:1479,161
DA:1480,110
DA:1481,96
DA:1482,71
DA:1483,90
DA:1487,9
DA:1488,9
DA:1490,9
DA:1491,9
DA:1494,9
DA:1495,0
DA:1496,9
DA:1498,9
DA:1499,2
DA:1500,7
DA:1502,9
DA:1503,2
DA:1504,7
DA:1506,9
DA:1507,0
DA:1508,9
DA:1510,9
DA:1511,0
DA:1512,9
DA:1514,9
DA:1515,9
DA:1517,9
DA:1519,9
DA:1520,9
DA:1521,9
DA:1523,9
DA:1524,9
DA:1525,9
DA:1526,9
DA:1528,9
DA:1529,9
DA:1532,2
DA:1533,2
DA:1534,2
DA:1537,2
DA:1538,2
DA:1539,2
DA:1540,2
DA:1541,0
DA:1542,0
DA:1545,2
DA:1546,2
DA:1547,2
DA:1549,4
DA:1550,2
DA:1553,2
DA:1554,0
DA:1555,2
DA:1558,14
DA:1559,12
DA:1560,12
DA:1563,2
DA:1564,2
DA:1565,2
DA:1567,2
DA:1568,2
DA:1569,2
DA:1573,2
DA:1576,2
DA:1579,2
DA:1580,2
DA:1581,2
DA:1582,2
DA:1583,2
DA:1584,2
DA:1585,2
DA:1586,2
DA:1587,2
DA:1588,2
DA:1589,2
DA:1591,2
DA:1592,2
DA:1595,2
DA:1596,2
DA:1597,2
DA:1599,2
DA:1600,2
DA:1601,2
DA:1602,2
DA:1603,2
DA:1605,2
DA:1608,2
DA:1610,2
DA:1611,2
DA:1614,10
DA:1616,10
DA:1618,10
DA:1619,0
DA:1620,10
DA:1621,0
DA:1622,10
DA:1623,0
DA:1624,10
DA:1626,10
DA:1627,0
DA:1628,10
DA:1629,2
DA:1630,8
DA:1632,10
DA:1633,0
DA:1634,10
DA:1636,10
DA:1637,10
DA:1640,10
DA:1641,10
DA:1644,10
DA:1645,0
DA:1646,0
DA:1647,0
DA:1648,0
DA:1649,0
DA:1650,0
DA:1651,0
DA:1652,10
DA:1653,1
DA:1654,1
DA:1655,1
DA:1656,1
DA:1657,1
DA:1658,1
DA:1659,1
DA:1660,9
DA:1663,10
DA:1664,3
DA:1665,3
DA:1666,3
DA:1667,3
DA:1668,3
DA:1669,3
DA:1670,3
DA:1671,7
DA:1674,10
DA:1675,3
DA:1676,3
DA:1677,3
DA:1678,3
DA:1679,3
DA:1680,3
DA:1681,3
DA:1682,7
DA:1685,10
DA:1686,0
DA:1687,0
DA:1688,0
DA:1689,0
DA:1690,0
DA:1691,0
DA:1692,0
DA:1693,10
DA:1696,10
DA:1697,1
DA:1698,1
DA:1699,1
DA:1700,1
DA:1701,1
DA:1702,1
DA:1703,1
DA:1704,9
DA:1707,10
DA:1708,1
DA:1709,1
DA:1710,1
DA:1711,1
DA:1712,1
DA:1713,1
DA:1714,1
DA:1715,9
DA:1717,10
DA:1718,10
DA:1721,10
DA:1722,10
DA:1724,16
DA:1725,6
DA:1726,1
DA:1727,1
DA:1728,1
DA:1729,1
DA:1730,1
DA:1731,1
DA:1732,1
DA:1733,1
DA:1734,1
DA:1735,1
DA:1736,1
DA:1737,1
DA:1738,1
DA:1739,1
DA:1740,1
DA:1741,1
DA:1742,1
DA:1743,2
DA:1744,2
DA:1745,2
DA:1746,2
DA:1747,2
DA:1748,2
DA:1749,2
DA:1750,2
DA:1751,2
DA:1752,3
DA:1753,3
DA:1754,3
DA:1755,3
DA:1756,3
DA:1757,3
DA:1758,3
DA:1759,3
DA:1760,3
DA:1761,0
DA:1762,0
DA:1763,0
DA:1764,0
DA:1765,0
DA:1766,0
DA:1767,0
DA:1768,0
DA:1769,0
DA:1770,0
DA:1771,0
DA:1772,0
DA:1773,0
DA:1774,0
DA:1775,0
DA:1776,0
DA:1777,0
DA:1778,0
DA:1779,0
DA:1780,0
DA:1781,0
DA:1782,0
DA:1783,0
DA:1784,0
DA:1785,0
DA:1786,0
DA:1787,0
DA:1788,0
DA:1789,0
DA:1790,0
DA:1791,0
DA:1792,0
DA:1793,0
DA:1794,0
DA:1795,0
DA:1796,0
DA:1797,0
DA:1798,0
DA:1799,0
DA:1800,0
DA:1801,0
DA:1802,0
DA:1803,0
DA:1804,0
DA:1805,0
DA:1806,0
DA:1811,10
DA:1814,10
DA:1815,10
BRF:0
BRH:0
LF:1243
LH:1066
end_of_record
SF:/home/nathan/Projects/valknut/src/detectors/coverage.rs
FN:224,_RNCNvMs0_NtNtCs64AwlgGXCHI_10valknut_rs9detectors8coverageNtB7_17CoverageExtractor20build_coverage_packs0Bb_
FN:224,_RNvMs0_NtNtCs64AwlgGXCHI_10valknut_rs9detectors8coverageNtB5_17CoverageExtractor20build_coverage_packs
FN:334,_RNvMs0_NtNtCs64AwlgGXCHI_10valknut_rs9detectors8coverageNtB5_17CoverageExtractor10parse_lcov
FN:636,_RNvMs0_NtNtCs64AwlgGXCHI_10valknut_rs9detectors8coverageNtB5_17CoverageExtractor10score_gaps
FN:568,_RNvMs0_NtNtCs64AwlgGXCHI_10valknut_rs9detectors8coverageNtB5_17CoverageExtractor13coalesce_gaps
FN:230,_RNvMs0_NtNtCs64AwlgGXCHI_10valknut_rs9detectors8coverageNtB5_17CoverageExtractor13detect_format
FN:953,_RNvMs0_NtNtCs64AwlgGXCHI_10valknut_rs9detectors8coverageNtB5_17CoverageExtractor13extract_lines
FN:530,_RNvMs0_NtNtCs64AwlgGXCHI_10valknut_rs9detectors8coverageNtB5_17CoverageExtractor14lines_to_spans
FN:1048,_RNvMs0_NtNtCs64AwlgGXCHI_10valknut_rs9detectors8coverageNtB5_17CoverageExtractor15detect_language
FN:969,_RNvMs0_NtNtCs64AwlgGXCHI_10valknut_rs9detectors8coverageNtB5_17CoverageExtractor15extract_imports
FN:719,_RNvMs0_NtNtCs64AwlgGXCHI_10valknut_rs9detectors8coverageNtB5_17CoverageExtractor16analyze_gap_code
FN:897,_RNvMs0_NtNtCs64AwlgGXCHI_10valknut_rs9detectors8coverageNtB5_17CoverageExtractor16generate_preview
FN:431,_RNvMs0_NtNtCs64AwlgGXCHI_10valknut_rs9detectors8coverageNtB5_17CoverageExtractor16parse_jacoco_xml
FN:1102,_RNvMs0_NtNtCs64AwlgGXCHI_10valknut_rs9detectors8coverageNtB5_17CoverageExtractor18chunk_spans_python
FN:381,_RNvMs0_NtNtCs64AwlgGXCHI_10valknut_rs9detectors8coverageNtB5_17CoverageExtractor19parse_cobertura_xml
FN:484,_RNvMs0_NtNtCs64AwlgGXCHI_10valknut_rs9detectors8coverageNtB5_17CoverageExtractor19parse_istanbul_json
FN:707,_RNvMs0_NtNtCs64AwlgGXCHI_10valknut_rs9detectors8coverageNtB5_17CoverageExtractor19update_gap_features
FN:877,_RNvMs0_NtNtCs64AwlgGXCHI_10valknut_rs9detectors8coverageNtB5_17CoverageExtractor20normalize_size_score
FN:281,_RNvMs0_NtNtCs64AwlgGXCHI_10valknut_rs9detectors8coverageNtB5_17CoverageExtractor21parse_coverage_py_xml
FN:265,_RNvMs0_NtNtCs64AwlgGXCHI_10valknut_rs9detectors8coverageNtB5_17CoverageExtractor21parse_coverage_report
FN:674,_RNvMs0_NtNtCs64AwlgGXCHI_10valknut_rs9detectors8coverageNtB5_17CoverageExtractor22calculate_file_metrics
FN:890,_RNvMs0_NtNtCs64AwlgGXCHI_10valknut_rs9detectors8coverageNtB5_17CoverageExtractor22normalize_fan_in_score
FN:1093,_RNvMs0_NtNtCs64AwlgGXCHI_10valknut_rs9detectors8coverageNtB5_17CoverageExtractor23chunk_spans_by_language
FN:1064,_RNvMs0_NtNtCs64AwlgGXCHI_10valknut_rs9detectors8coverageNtB5_17CoverageExtractor23coalesce_spans_for_file
FN:854,_RNvMs0_NtNtCs64AwlgGXCHI_10valknut_rs9detectors8coverageNtB5_17CoverageExtractor24estimate_file_centrality
FN:798,_RNvMs0_NtNtCs64AwlgGXCHI_10valknut_rs9detectors8coverageNtB5_17CoverageExtractor24extract_symbol_from_line
FN:884,_RNvMs0_NtNtCs64AwlgGXCHI_10valknut_rs9detectors8coverageNtB5_17CoverageExtractor26normalize_complexity_score
FN:219,_RNvMs0_NtNtCs64AwlgGXCHI_10valknut_rs9detectors8coverageNtB5_17CoverageExtractor3new
FN:175,_RNvXNtNtCs64AwlgGXCHI_10valknut_rs9detectors8coverageNtB2_14ScoringWeightsNtNtCs66KPHxksi63_4core7default7Default7default
FN:1165,_RNvXsE_NtNtCs64AwlgGXCHI_10valknut_rs9detectors8coverageNtB5_17CoverageExtractorNtNtNtB9_4core10featureset16FeatureExtractor4name
FN:1167,_RNvXsE_NtNtCs64AwlgGXCHI_10valknut_rs9detectors8coverageNtB5_17CoverageExtractorNtNtNtB9_4core10featureset16FeatureExtractor7extract
FN:1166,_RNvXsE_NtNtCs64AwlgGXCHI_10valknut_rs9detectors8coverageNtB5_17CoverageExtractorNtNtNtB9_4core10featureset16FeatureExtractor8features
FN:188,_RNvXs_NtNtCs64AwlgGXCHI_10valknut_rs9detectors8coverageNtB4_14CoverageConfigNtNtCs66KPHxksi63_4core7default7Default7default
FN:1579,_RNvNtNtNtCs64AwlgGXCHI_10valknut_rs9detectors8coverage5testss_15test_parse_lcov
FN:2125,_RNvNtNtNtCs64AwlgGXCHI_10valknut_rs9detectors8coverage5testss_18test_extract_lines
FN:1708,_RNvNtNtNtCs64AwlgGXCHI_10valknut_rs9detectors8coverage5testss_20test_detect_language
FN:1264,_RNvNtNtNtCs64AwlgGXCHI_10valknut_rs9detectors8coverage5testss_21test_gap_symbol_kinds
FN:2031,_RNvNtNtNtCs64AwlgGXCHI_10valknut_rs9detectors8coverage5testss_21test_score_gaps_basic
FN:1466,_RNvNtNtNtCs64AwlgGXCHI_10valknut_rs9detectors8coverage5testss_23test_detect_format_lcov
FN:1813,_RNvNtNtNtCs64AwlgGXCHI_10valknut_rs9detectors8coverage5testss_24test_coalesce_gaps_basic
FN:1618,_RNvNtNtNtCs64AwlgGXCHI_10valknut_rs9detectors8coverage5testss_24test_parse_istanbul_json
FN:2170,_RNvNtNtNtCs64AwlgGXCHI_10valknut_rs9detectors8coverage5testss_25test_extract_imports_rust
FN:1421,_RNvNtNtNtCs64AwlgGXCHI_10valknut_rs9detectors8coverage5testss_25test_lines_to_spans_empty
FN:1950,_RNvNtNtNtCs64AwlgGXCHI_10valknut_rs9detectors8coverage5testss_25test_normalize_size_score
FN:1517,_RNvNtNtNtCs64AwlgGXCHI_10valknut_rs9detectors8coverage5testss_26test_detect_format_unknown
FN:1244,_RNvNtNtNtCs64AwlgGXCHI_10valknut_rs9detectors8coverage5testss_26test_gap_features_creation
FN:1531,_RNvNtNtNtCs64AwlgGXCHI_10valknut_rs9detectors8coverage5testss_26test_parse_coverage_py_xml
FN:1307,_RNvNtNtNtCs64AwlgGXCHI_10valknut_rs9detectors8coverage5testss_27test_coverage_pack_creation
FN:2148,_RNvNtNtNtCs64AwlgGXCHI_10valknut_rs9detectors8coverage5testss_27test_extract_imports_python
FN:1360,_RNvNtNtNtCs64AwlgGXCHI_10valknut_rs9detectors8coverage5testss_27test_line_coverage_creation
FN:1970,_RNvNtNtNtCs64AwlgGXCHI_10valknut_rs9detectors8coverage5testss_27test_normalize_fan_in_score
FN:1723,_RNvNtNtNtCs64AwlgGXCHI_10valknut_rs9detectors8coverage5testss_28test_coalesce_spans_for_file
FN:1203,_RNvNtNtNtCs64AwlgGXCHI_10valknut_rs9detectors8coverage5testss_28test_coverage_config_default
FN:1191,_RNvNtNtNtCs64AwlgGXCHI_10valknut_rs9detectors8coverage5testss_28test_coverage_extractor_name
FN:1213,_RNvNtNtNtCs64AwlgGXCHI_10valknut_rs9detectors8coverage5testss_28test_scoring_weights_default
FN:1229,_RNvNtNtNtCs64AwlgGXCHI_10valknut_rs9detectors8coverage5testss_28test_uncovered_span_creation
FN:1184,_RNvNtNtNtCs64AwlgGXCHI_10valknut_rs9detectors8coverage5testss_29test_coverage_extractor_debug
FN:1350,_RNvNtNtNtCs64AwlgGXCHI_10valknut_rs9detectors8coverage5testss_29test_coverage_format_variants
FN:1980,_RNvNtNtNtCs64AwlgGXCHI_10valknut_rs9detectors8coverage5testss_29test_estimate_file_centrality
FN:2000,_RNvNtNtNtCs64AwlgGXCHI_10valknut_rs9detectors8coverage5testss_29test_extract_symbol_from_line
FN:2307,_RNvNtNtNtCs64AwlgGXCHI_10valknut_rs9detectors8coverage5testss_30test_generate_preview_long_gap
FN:1288,_RNvNtNtNtCs64AwlgGXCHI_10valknut_rs9detectors8coverage5testss_30test_snippet_preview_structure
FN:1178,_RNvNtNtNtCs64AwlgGXCHI_10valknut_rs9detectors8coverage5testss_31test_coverage_extractor_default
FN:1692,_RNvNtNtNtCs64AwlgGXCHI_10valknut_rs9detectors8coverage5testss_31test_coverage_extractor_extract
FN:2190,_RNvNtNtNtCs64AwlgGXCHI_10valknut_rs9detectors8coverage5testss_31test_extract_imports_typescript
FN:1373,_RNvNtNtNtCs64AwlgGXCHI_10valknut_rs9detectors8coverage5testss_31test_lines_to_spans_single_line
FN:1960,_RNvNtNtNtCs64AwlgGXCHI_10valknut_rs9detectors8coverage5testss_31test_normalize_complexity_score
FN:1678,_RNvNtNtNtCs64AwlgGXCHI_10valknut_rs9detectors8coverage5testss_31test_parse_unknown_format_error
FN:1197,_RNvNtNtNtCs64AwlgGXCHI_10valknut_rs9detectors8coverage5testss_32test_coverage_extractor_features
FN:1491,_RNvNtNtNtCs64AwlgGXCHI_10valknut_rs9detectors8coverage5testss_32test_detect_format_istanbul_json
FN:1399,_RNvNtNtNtCs64AwlgGXCHI_10valknut_rs9detectors8coverage5testss_33test_lines_to_spans_multiple_gaps
FN:1882,_RNvNtNtNtCs64AwlgGXCHI_10valknut_rs9detectors8coverage5testss_34test_chunk_spans_python_large_span
FN:1849,_RNvNtNtNtCs64AwlgGXCHI_10valknut_rs9detectors8coverage5testss_34test_chunk_spans_python_small_span
FN:1431,_RNvNtNtNtCs64AwlgGXCHI_10valknut_rs9detectors8coverage5testss_34test_detect_format_coverage_py_xml
FN:1387,_RNvNtNtNtCs64AwlgGXCHI_10valknut_rs9detectors8coverage5testss_34test_lines_to_spans_adjacent_lines
FN:1931,_RNvNtNtNtCs64AwlgGXCHI_10valknut_rs9detectors8coverage5testss_36test_chunk_spans_by_language_unknown
FN:2212,_RNvNtNtNtCs64AwlgGXCHI_10valknut_rs9detectors8coverage5testss_36test_generate_preview_with_real_file
FN:1656,_RNvNtNtNtCs64AwlgGXCHI_10valknut_rs9detectors8coverage5testss_38test_parse_coverage_report_integration
FN:1337,_RNvNtNtNtCs64AwlgGXCHI_10valknut_rs9detectors8coverage5testss_39test_coverage_extractor_new_with_config
FN:731,_RNCNCNvMs0_NtNtCs64AwlgGXCHI_10valknut_rs9detectors8coverageNtB9_17CoverageExtractor16analyze_gap_code00Bd_
FN:336,_RNCNvMs0_NtNtCs64AwlgGXCHI_10valknut_rs9detectors8coverageNtB7_17CoverageExtractor10parse_lcov0Bb_
FN:668,_RNCNvMs0_NtNtCs64AwlgGXCHI_10valknut_rs9detectors8coverageNtB7_17CoverageExtractor10score_gaps0Bb_
FN:232,_RNCNvMs0_NtNtCs64AwlgGXCHI_10valknut_rs9detectors8coverageNtB7_17CoverageExtractor13detect_format0Bb_
FN:251,_RNCNvMs0_NtNtCs64AwlgGXCHI_10valknut_rs9detectors8coverageNtB7_17CoverageExtractor13detect_formats_0Bb_
FN:1049,_RNCNvMs0_NtNtCs64AwlgGXCHI_10valknut_rs9detectors8coverageNtB7_17CoverageExtractor15detect_language0Bb_
FN:730,_RNCNvMs0_NtNtCs64AwlgGXCHI_10valknut_rs9detectors8coverageNtB7_17CoverageExtractor16analyze_gap_code0Bb_
FN:433,_RNCNvMs0_NtNtCs64AwlgGXCHI_10valknut_rs9detectors8coverageNtB7_17CoverageExtractor16parse_jacoco_xml0Bb_
FN:383,_RNCNvMs0_NtNtCs64AwlgGXCHI_10valknut_rs9detectors8coverageNtB7_17CoverageExtractor19parse_cobertura_xml0Bb_
FN:486,_RNCNvMs0_NtNtCs64AwlgGXCHI_10valknut_rs9detectors8coverageNtB7_17CoverageExtractor19parse_istanbul_json0Bb_
FN:497,_RNCNvMs0_NtNtCs64AwlgGXCHI_10valknut_rs9detectors8coverageNtB7_17CoverageExtractor19parse_istanbul_jsons0_0Bb_
FN:501,_RNCNvMs0_NtNtCs64AwlgGXCHI_10valknut_rs9detectors8coverageNtB7_17CoverageExtractor19parse_istanbul_jsons1_0Bb_
FN:509,_RNCNvMs0_NtNtCs64AwlgGXCHI_10valknut_rs9detectors8coverageNtB7_17CoverageExtractor19parse_istanbul_jsons2_0Bb_
FN:490,_RNCNvMs0_NtNtCs64AwlgGXCHI_10valknut_rs9detectors8coverageNtB7_17CoverageExtractor19parse_istanbul_jsons_0Bb_
FN:283,_RNCNvMs0_NtNtCs64AwlgGXCHI_10valknut_rs9detectors8coverageNtB7_17CoverageExtractor21parse_coverage_py_xml0Bb_
FN:687,_RNCNvMs0_NtNtCs64AwlgGXCHI_10valknut_rs9detectors8coverageNtB7_17CoverageExtractor22calculate_file_metricss_0Bb_
FN:804,_RNCNvMs0_NtNtCs64AwlgGXCHI_10valknut_rs9detectors8coverageNtB7_17CoverageExtractor24extract_symbol_from_line0Bb_
FN:825,_RNCNvMs0_NtNtCs64AwlgGXCHI_10valknut_rs9detectors8coverageNtB7_17CoverageExtractor24extract_symbol_from_lines0_0Bb_
FN:820,_RNCNvMs0_NtNtCs64AwlgGXCHI_10valknut_rs9detectors8coverageNtB7_17CoverageExtractor24extract_symbol_from_lines_0Bb_
FN:1606,_RNCNvNtNtNtCs64AwlgGXCHI_10valknut_rs9detectors8coverage5testss_15test_parse_lcov0B9_
FN:1609,_RNCNvNtNtNtCs64AwlgGXCHI_10valknut_rs9detectors8coverage5testss_15test_parse_lcovs_0B9_
FN:1836,_RNCNvNtNtNtCs64AwlgGXCHI_10valknut_rs9detectors8coverage5testss_24test_coalesce_gaps_basic0B9_
FN:1842,_RNCNvNtNtNtCs64AwlgGXCHI_10valknut_rs9detectors8coverage5testss_24test_coalesce_gaps_basics_0B9_
FN:1566,_RNCNvNtNtNtCs64AwlgGXCHI_10valknut_rs9detectors8coverage5testss_26test_parse_coverage_py_xml0B9_
FN:1570,_RNCNvNtNtNtCs64AwlgGXCHI_10valknut_rs9detectors8coverage5testss_26test_parse_coverage_py_xmls_0B9_
FN:2313,_RNCNvNtNtNtCs64AwlgGXCHI_10valknut_rs9detectors8coverage5testss_30test_generate_preview_long_gap0B9_
FN:2361,_RNCNvNtNtNtCs64AwlgGXCHI_10valknut_rs9detectors8coverage5testss_30test_generate_preview_long_gaps0_0B9_
FN:2365,_RNCNvNtNtNtCs64AwlgGXCHI_10valknut_rs9detectors8coverage5testss_30test_generate_preview_long_gaps1_0B9_
FN:2369,_RNCNvNtNtNtCs64AwlgGXCHI_10valknut_rs9detectors8coverage5testss_30test_generate_preview_long_gaps2_0B9_
FN:2358,_RNCNvNtNtNtCs64AwlgGXCHI_10valknut_rs9detectors8coverage5testss_30test_generate_preview_long_gaps_0B9_
FN:1692,_RNCNvNtNtNtCs64AwlgGXCHI_10valknut_rs9detectors8coverage5testss_31test_coverage_extractor_extract0B9_
FN:2287,_RNCNvNtNtNtCs64AwlgGXCHI_10valknut_rs9detectors8coverage5testss_36test_generate_preview_with_real_file0B9_
FN:2295,_RNCNvNtNtNtCs64AwlgGXCHI_10valknut_rs9detectors8coverage5testss_36test_generate_preview_with_real_files0_0B9_
FN:2291,_RNCNvNtNtNtCs64AwlgGXCHI_10valknut_rs9detectors8coverage5testss_36test_generate_preview_with_real_files_0B9_
FNDA:0,_RNCNvMs0_NtNtCs64AwlgGXCHI_10valknut_rs9detectors8coverageNtB7_17CoverageExtractor20build_coverage_packs0Bb_
FNDA:0,_RNvMs0_NtNtCs64AwlgGXCHI_10valknut_rs9detectors8coverageNtB5_17CoverageExtractor20build_coverage_packs
FNDA:2,_RNvMs0_NtNtCs64AwlgGXCHI_10valknut_rs9detectors8coverageNtB5_17CoverageExtractor10parse_lcov
FNDA:1,_RNvMs0_NtNtCs64AwlgGXCHI_10valknut_rs9detectors8coverageNtB5_17CoverageExtractor10score_gaps
FNDA:1,_RNvMs0_NtNtCs64AwlgGXCHI_10valknut_rs9detectors8coverageNtB5_17CoverageExtractor13coalesce_gaps
FNDA:6,_RNvMs0_NtNtCs64AwlgGXCHI_10valknut_rs9detectors8coverageNtB5_17CoverageExtractor13detect_format
FNDA:13,_RNvMs0_NtNtCs64AwlgGXCHI_10valknut_rs9detectors8coverageNtB5_17CoverageExtractor13extract_lines
FNDA:10,_RNvMs0_NtNtCs64AwlgGXCHI_10valknut_rs9detectors8coverageNtB5_17CoverageExtractor14lines_to_spans
FNDA:11,_RNvMs0_NtNtCs64AwlgGXCHI_10valknut_rs9detectors8coverageNtB5_17CoverageExtractor15detect_language
FNDA:5,_RNvMs0_NtNtCs64AwlgGXCHI_10valknut_rs9detectors8coverageNtB5_17CoverageExtractor15extract_imports
FNDA:2,_RNvMs0_NtNtCs64AwlgGXCHI_10valknut_rs9detectors8coverageNtB5_17CoverageExtractor16analyze_gap_code
FNDA:4,_RNvMs0_NtNtCs64AwlgGXCHI_10valknut_rs9detectors8coverageNtB5_17CoverageExtractor16generate_preview
FNDA:0,_RNvMs0_NtNtCs64AwlgGXCHI_10valknut_rs9detectors8coverageNtB5_17CoverageExtractor16parse_jacoco_xml
FNDA:3,_RNvMs0_NtNtCs64AwlgGXCHI_10valknut_rs9detectors8coverageNtB5_17CoverageExtractor18chunk_spans_python
FNDA:0,_RNvMs0_NtNtCs64AwlgGXCHI_10valknut_rs9detectors8coverageNtB5_17CoverageExtractor19parse_cobertura_xml
FNDA:1,_RNvMs0_NtNtCs64AwlgGXCHI_10valknut_rs9detectors8coverageNtB5_17CoverageExtractor19parse_istanbul_json
FNDA:2,_RNvMs0_NtNtCs64AwlgGXCHI_10valknut_rs9detectors8coverageNtB5_17CoverageExtractor19update_gap_features
FNDA:6,_RNvMs0_NtNtCs64AwlgGXCHI_10valknut_rs9detectors8coverageNtB5_17CoverageExtractor20normalize_size_score
FNDA:1,_RNvMs0_NtNtCs64AwlgGXCHI_10valknut_rs9detectors8coverageNtB5_17CoverageExtractor21parse_coverage_py_xml
FNDA:2,_RNvMs0_NtNtCs64AwlgGXCHI_10valknut_rs9detectors8coverageNtB5_17CoverageExtractor21parse_coverage_report
FNDA:1,_RNvMs0_NtNtCs64AwlgGXCHI_10valknut_rs9detectors8coverageNtB5_17CoverageExtractor22calculate_file_metrics
FNDA:6,_RNvMs0_NtNtCs64AwlgGXCHI_10valknut_rs9detectors8coverageNtB5_17CoverageExtractor22normalize_fan_in_score
FNDA:3,_RNvMs0_NtNtCs64AwlgGXCHI_10valknut_rs9detectors8coverageNtB5_17CoverageExtractor23chunk_spans_by_language
FNDA:7,_RNvMs0_NtNtCs64AwlgGXCHI_10valknut_rs9detectors8coverageNtB5_17CoverageExtractor23coalesce_spans_for_file
FNDA:9,_RNvMs0_NtNtCs64AwlgGXCHI_10valknut_rs9detectors8coverageNtB5_17CoverageExtractor24estimate_file_centrality
FNDA:14,_RNvMs0_NtNtCs64AwlgGXCHI_10valknut_rs9detectors8coverageNtB5_17CoverageExtractor24extract_symbol_from_line
FNDA:6,_RNvMs0_NtNtCs64AwlgGXCHI_10valknut_rs9detectors8coverageNtB5_17CoverageExtractor26normalize_complexity_score
FNDA:1,_RNvMs0_NtNtCs64AwlgGXCHI_10valknut_rs9detectors8coverageNtB5_17CoverageExtractor3new
FNDA:39,_RNvXNtNtCs64AwlgGXCHI_10valknut_rs9detectors8coverageNtB2_14ScoringWeightsNtNtCs66KPHxksi63_4core7default7Default7default
FNDA:2,_RNvXsE_NtNtCs64AwlgGXCHI_10valknut_rs9detectors8coverageNtB5_17CoverageExtractorNtNtNtB9_4core10featureset16FeatureExtractor4name
FNDA:1,_RNvXsE_NtNtCs64AwlgGXCHI_10valknut_rs9detectors8coverageNtB5_17CoverageExtractorNtNtNtB9_4core10featureset16FeatureExtractor7extract
FNDA:1,_RNvXsE_NtNtCs64AwlgGXCHI_10valknut_rs9detectors8coverageNtB5_17CoverageExtractorNtNtNtB9_4core10featureset16FeatureExtractor8features
FNDA:38,_RNvXs_NtNtCs64AwlgGXCHI_10valknut_rs9detectors8coverageNtB4_14CoverageConfigNtNtCs66KPHxksi63_4core7default7Default7default
FNDA:1,_RNvNtNtNtCs64AwlgGXCHI_10valknut_rs9detectors8coverage5testss_15test_parse_lcov
FNDA:1,_RNvNtNtNtCs64AwlgGXCHI_10valknut_rs9detectors8coverage5testss_18test_extract_lines
FNDA:1,_RNvNtNtNtCs64AwlgGXCHI_10valknut_rs9detectors8coverage5testss_20test_detect_language
FNDA:1,_RNvNtNtNtCs64AwlgGXCHI_10valknut_rs9detectors8coverage5testss_21test_gap_symbol_kinds
FNDA:1,_RNvNtNtNtCs64AwlgGXCHI_10valknut_rs9detectors8coverage5testss_21test_score_gaps_basic
FNDA:1,_RNvNtNtNtCs64AwlgGXCHI_10valknut_rs9detectors8coverage5testss_23test_detect_format_lcov
FNDA:1,_RNvNtNtNtCs64AwlgGXCHI_10valknut_rs9detectors8coverage5testss_24test_coalesce_gaps_basic
FNDA:1,_RNvNtNtNtCs64AwlgGXCHI_10valknut_rs9detectors8coverage5testss_24test_parse_istanbul_json
FNDA:1,_RNvNtNtNtCs64AwlgGXCHI_10valknut_rs9detectors8coverage5testss_25test_extract_imports_rust
FNDA:1,_RNvNtNtNtCs64AwlgGXCHI_10valknut_rs9detectors8coverage5testss_25test_lines_to_spans_empty
FNDA:1,_RNvNtNtNtCs64AwlgGXCHI_10valknut_rs9detectors8coverage5testss_25test_normalize_size_score
FNDA:1,_RNvNtNtNtCs64AwlgGXCHI_10valknut_rs9detectors8coverage5testss_26test_detect_format_unknown
FNDA:1,_RNvNtNtNtCs64AwlgGXCHI_10valknut_rs9detectors8coverage5testss_26test_gap_features_creation
FNDA:1,_RNvNtNtNtCs64AwlgGXCHI_10valknut_rs9detectors8coverage5testss_26test_parse_coverage_py_xml
FNDA:1,_RNvNtNtNtCs64AwlgGXCHI_10valknut_rs9detectors8coverage5testss_27test_coverage_pack_creation
FNDA:1,_RNvNtNtNtCs64AwlgGXCHI_10valknut_rs9detectors8coverage5testss_27test_extract_imports_python
FNDA:1,_RNvNtNtNtCs64AwlgGXCHI_10valknut_rs9detectors8coverage5testss_27test_line_coverage_creation
FNDA:1,_RNvNtNtNtCs64AwlgGXCHI_10valknut_rs9detectors8coverage5testss_27test_normalize_fan_in_score
FNDA:1,_RNvNtNtNtCs64AwlgGXCHI_10valknut_rs9detectors8coverage5testss_28test_coalesce_spans_for_file
FNDA:1,_RNvNtNtNtCs64AwlgGXCHI_10valknut_rs9detectors8coverage5testss_28test_coverage_config_default
FNDA:1,_RNvNtNtNtCs64AwlgGXCHI_10valknut_rs9detectors8coverage5testss_28test_coverage_extractor_name
FNDA:1,_RNvNtNtNtCs64AwlgGXCHI_10valknut_rs9detectors8coverage5testss_28test_scoring_weights_default
FNDA:1,_RNvNtNtNtCs64AwlgGXCHI_10valknut_rs9detectors8coverage5testss_28test_uncovered_span_creation
FNDA:1,_RNvNtNtNtCs64AwlgGXCHI_10valknut_rs9detectors8coverage5testss_29test_coverage_extractor_debug
FNDA:1,_RNvNtNtNtCs64AwlgGXCHI_10valknut_rs9detectors8coverage5testss_29test_coverage_format_variants
FNDA:1,_RNvNtNtNtCs64AwlgGXCHI_10valknut_rs9detectors8coverage5testss_29test_estimate_file_centrality
FNDA:1,_RNvNtNtNtCs64AwlgGXCHI_10valknut_rs9detectors8coverage5testss_29test_extract_symbol_from_line
FNDA:1,_RNvNtNtNtCs64AwlgGXCHI_10valknut_rs9detectors8coverage5testss_30test_generate_preview_long_gap
FNDA:1,_RNvNtNtNtCs64AwlgGXCHI_10valknut_rs9detectors8coverage5testss_30test_snippet_preview_structure
FNDA:1,_RNvNtNtNtCs64AwlgGXCHI_10valknut_rs9detectors8coverage5testss_31test_coverage_extractor_default
FNDA:1,_RNvNtNtNtCs64AwlgGXCHI_10valknut_rs9detectors8coverage5testss_31test_coverage_extractor_extract
FNDA:1,_RNvNtNtNtCs64AwlgGXCHI_10valknut_rs9detectors8coverage5testss_31test_extract_imports_typescript
FNDA:1,_RNvNtNtNtCs64AwlgGXCHI_10valknut_rs9detectors8coverage5testss_31test_lines_to_spans_single_line
FNDA:1,_RNvNtNtNtCs64AwlgGXCHI_10valknut_rs9detectors8coverage5testss_31test_normalize_complexity_score
FNDA:1,_RNvNtNtNtCs64AwlgGXCHI_10valknut_rs9detectors8coverage5testss_31test_parse_unknown_format_error
FNDA:1,_RNvNtNtNtCs64AwlgGXCHI_10valknut_rs9detectors8coverage5testss_32test_coverage_extractor_features
FNDA:1,_RNvNtNtNtCs64AwlgGXCHI_10valknut_rs9detectors8coverage5testss_32test_detect_format_istanbul_json
FNDA:1,_RNvNtNtNtCs64AwlgGXCHI_10valknut_rs9detectors8coverage5testss_33test_lines_to_spans_multiple_gaps
FNDA:1,_RNvNtNtNtCs64AwlgGXCHI_10valknut_rs9detectors8coverage5testss_34test_chunk_spans_python_large_span
FNDA:1,_RNvNtNtNtCs64AwlgGXCHI_10valknut_rs9detectors8coverage5testss_34test_chunk_spans_python_small_span
FNDA:1,_RNvNtNtNtCs64AwlgGXCHI_10valknut_rs9detectors8coverage5testss_34test_detect_format_coverage_py_xml
FNDA:1,_RNvNtNtNtCs64AwlgGXCHI_10valknut_rs9detectors8coverage5testss_34test_lines_to_spans_adjacent_lines
FNDA:1,_RNvNtNtNtCs64AwlgGXCHI_10valknut_rs9detectors8coverage5testss_36test_chunk_spans_by_language_unknown
FNDA:1,_RNvNtNtNtCs64AwlgGXCHI_10valknut_rs9detectors8coverage5testss_36test_generate_preview_with_real_file
FNDA:1,_RNvNtNtNtCs64AwlgGXCHI_10valknut_rs9detectors8coverage5testss_38test_parse_coverage_report_integration
FNDA:1,_RNvNtNtNtCs64AwlgGXCHI_10valknut_rs9detectors8coverage5testss_39test_coverage_extractor_new_with_config
FNDA:10,_RNCNCNvMs0_NtNtCs64AwlgGXCHI_10valknut_rs9detectors8coverageNtB9_17CoverageExtractor16analyze_gap_code00Bd_
FNDA:0,_RNCNvMs0_NtNtCs64AwlgGXCHI_10valknut_rs9detectors8coverageNtB7_17CoverageExtractor10parse_lcov0Bb_
FNDA:1,_RNCNvMs0_NtNtCs64AwlgGXCHI_10valknut_rs9detectors8coverageNtB7_17CoverageExtractor10score_gaps0Bb_
FNDA:0,_RNCNvMs0_NtNtCs64AwlgGXCHI_10valknut_rs9detectors8coverageNtB7_17CoverageExtractor13detect_format0Bb_
FNDA:5,_RNCNvMs0_NtNtCs64AwlgGXCHI_10valknut_rs9detectors8coverageNtB7_17CoverageExtractor13detect_formats_0Bb_
FNDA:11,_RNCNvMs0_NtNtCs64AwlgGXCHI_10valknut_rs9detectors8coverageNtB7_17CoverageExtractor15detect_language0Bb_
FNDA:10,_RNCNvMs0_NtNtCs64AwlgGXCHI_10valknut_rs9detectors8coverageNtB7_17CoverageExtractor16analyze_gap_code0Bb_
FNDA:0,_RNCNvMs0_NtNtCs64AwlgGXCHI_10valknut_rs9detectors8coverageNtB7_17CoverageExtractor16parse_jacoco_xml0Bb_
FNDA:0,_RNCNvMs0_NtNtCs64AwlgGXCHI_10valknut_rs9detectors8coverageNtB7_17CoverageExtractor19parse_cobertura_xml0Bb_
FNDA:0,_RNCNvMs0_NtNtCs64AwlgGXCHI_10valknut_rs9detectors8coverageNtB7_17CoverageExtractor19parse_istanbul_json0Bb_
FNDA:1,_RNCNvMs0_NtNtCs64AwlgGXCHI_10valknut_rs9detectors8coverageNtB7_17CoverageExtractor19parse_istanbul_jsons0_0Bb_
FNDA:1,_RNCNvMs0_NtNtCs64AwlgGXCHI_10valknut_rs9detectors8coverageNtB7_17CoverageExtractor19parse_istanbul_jsons1_0Bb_
FNDA:3,_RNCNvMs0_NtNtCs64AwlgGXCHI_10valknut_rs9detectors8coverageNtB7_17CoverageExtractor19parse_istanbul_jsons2_0Bb_
FNDA:0,_RNCNvMs0_NtNtCs64AwlgGXCHI_10valknut_rs9detectors8coverageNtB7_17CoverageExtractor19parse_istanbul_jsons_0Bb_
FNDA:0,_RNCNvMs0_NtNtCs64AwlgGXCHI_10valknut_rs9detectors8coverageNtB7_17CoverageExtractor21parse_coverage_py_xml0Bb_
FNDA:2,_RNCNvMs0_NtNtCs64AwlgGXCHI_10valknut_rs9detectors8coverageNtB7_17CoverageExtractor22calculate_file_metricss_0Bb_
FNDA:2,_RNCNvMs0_NtNtCs64AwlgGXCHI_10valknut_rs9detectors8coverageNtB7_17CoverageExtractor24extract_symbol_from_line0Bb_
FNDA:14,_RNCNvMs0_NtNtCs64AwlgGXCHI_10valknut_rs9detectors8coverageNtB7_17CoverageExtractor24extract_symbol_from_lines0_0Bb_
FNDA:0,_RNCNvMs0_NtNtCs64AwlgGXCHI_10valknut_rs9detectors8coverageNtB7_17CoverageExtractor24extract_symbol_from_lines_0Bb_
FNDA:3,_RNCNvNtNtNtCs64AwlgGXCHI_10valknut_rs9detectors8coverage5testss_15test_parse_lcov0B9_
FNDA:3,_RNCNvNtNtNtCs64AwlgGXCHI_10valknut_rs9detectors8coverage5testss_15test_parse_lcovs_0B9_
FNDA:1,_RNCNvNtNtNtCs64AwlgGXCHI_10valknut_rs9detectors8coverage5testss_24test_coalesce_gaps_basic0B9_
FNDA:2,_RNCNvNtNtNtCs64AwlgGXCHI_10valknut_rs9detectors8coverage5testss_24test_coalesce_gaps_basics_0B9_
FNDA:3,_RNCNvNtNtNtCs64AwlgGXCHI_10valknut_rs9detectors8coverage5testss_26test_parse_coverage_py_xml0B9_
FNDA:3,_RNCNvNtNtNtCs64AwlgGXCHI_10valknut_rs9detectors8coverage5testss_26test_parse_coverage_py_xmls_0B9_
FNDA:50,_RNCNvNtNtNtCs64AwlgGXCHI_10valknut_rs9detectors8coverage5testss_30test_generate_preview_long_gap0B9_
FNDA:2,_RNCNvNtNtNtCs64AwlgGXCHI_10valknut_rs9detectors8coverage5testss_30test_generate_preview_long_gaps0_0B9_
FNDA:1,_RNCNvNtNtNtCs64AwlgGXCHI_10valknut_rs9detectors8coverage5testss_30test_generate_preview_long_gaps1_0B9_
FNDA:1,_RNCNvNtNtNtCs64AwlgGXCHI_10valknut_rs9detectors8coverage5testss_30test_generate_preview_long_gaps2_0B9_
FNDA:1,_RNCNvNtNtNtCs64AwlgGXCHI_10valknut_rs9detectors8coverage5testss_30test_generate_preview_long_gaps_0B9_
FNDA:1,_RNCNvNtNtNtCs64AwlgGXCHI_10valknut_rs9detectors8coverage5testss_31test_coverage_extractor_extract0B9_
FNDA:4,_RNCNvNtNtNtCs64AwlgGXCHI_10valknut_rs9detectors8coverage5testss_36test_generate_preview_with_real_file0B9_
FNDA:4,_RNCNvNtNtNtCs64AwlgGXCHI_10valknut_rs9detectors8coverage5testss_36test_generate_preview_with_real_files0_0B9_
FNDA:1,_RNCNvNtNtNtCs64AwlgGXCHI_10valknut_rs9detectors8coverage5testss_36test_generate_preview_with_real_files_0B9_
FNF:113
FNH:101
DA:175,39
DA:176,39
DA:177,39
DA:178,39
DA:179,39
DA:180,39
DA:181,39
DA:182,39
DA:183,39
DA:184,39
DA:188,38
DA:189,38
DA:190,38
DA:191,38
DA:192,38
DA:193,38
DA:194,38
DA:195,38
DA:196,38
DA:197,38
DA:198,38
DA:199,38
DA:200,38
DA:201,38
DA:202,38
DA:203,38
DA:204,38
DA:205,38
DA:206,38
DA:207,38
DA:208,38
DA:209,38
DA:219,1
DA:220,1
DA:221,1
DA:224,0
DA:226,0
DA:227,0
DA:230,6
DA:231,6
DA:232,6
DA:235,6
DA:236,1
DA:238,1
DA:239,0
DA:241,1
DA:243,0
DA:244,0
DA:245,0
DA:246,0
DA:247,0
DA:248,5
DA:251,5
DA:252,3
DA:253,2
DA:254,3
DA:257,3
DA:258,1
DA:259,2
DA:261,2
DA:262,6
DA:265,2
DA:266,2
DA:268,2
DA:269,0
DA:270,1
DA:271,0
DA:272,0
DA:273,0
DA:274,1
DA:275,1
DA:276,1
DA:278,2
DA:281,1
DA:282,1
DA:283,1
DA:285,1
DA:286,1
DA:287,1
DA:290,25
DA:291,25
DA:294,25
DA:295,2
DA:296,2
DA:297,2
DA:299,2
DA:300,1
DA:301,1
DA:302,1
DA:303,0
DA:304,1
DA:305,2
DA:306,0
DA:307,0
DA:308,23
DA:311,25
DA:312,5
DA:313,5
DA:314,5
DA:315,5
DA:316,5
DA:317,5
DA:318,0
DA:319,0
DA:320,20
DA:324,1
DA:325,1
DA:326,1
DA:327,0
DA:328,0
DA:330,1
DA:331,1
DA:334,2
DA:335,2
DA:336,2
DA:338,2
DA:339,2
DA:340,2
DA:342,23
DA:343,23
DA:346,23
DA:348,3
DA:349,1
DA:350,1
DA:351,1
DA:352,0
DA:353,2
DA:354,3
DA:355,20
DA:358,23
DA:359,11
DA:360,11
DA:361,11
DA:362,11
DA:363,7
DA:364,7
DA:365,0
DA:366,0
DA:367,12
DA:371,2
DA:372,2
DA:373,2
DA:374,0
DA:375,0
DA:377,2
DA:378,2
DA:381,0
DA:382,0
DA:383,0
DA:385,0
DA:386,0
DA:387,0
DA:389,0
DA:390,0
DA:393,0
DA:394,0
DA:395,0
DA:396,0
DA:397,0
DA:398,0
DA:399,0
DA:400,0
DA:401,0
DA:402,0
DA:403,0
DA:404,0
DA:405,0
DA:406,0
DA:409,0
DA:410,0
DA:411,0
DA:412,0
DA:413,0
DA:414,0
DA:415,0
DA:416,0
DA:417,0
DA:418,0
DA:421,0
DA:422,0
DA:423,0
DA:424,0
DA:425,0
DA:427,0
DA:428,0
DA:431,0
DA:432,0
DA:433,0
DA:435,0
DA:436,0
DA:437,0
DA:439,0
DA:440,0
DA:443,0
DA:444,0
DA:445,0
DA:446,0
DA:447,0
DA:448,0
DA:449,0
DA:450,0
DA:451,0
DA:452,0
DA:453,0
DA:454,0
DA:455,0
DA:456,0
DA:459,0
DA:460,0
DA:461,0
DA:462,0
DA:463,0
DA:465,0
DA:466,0
DA:467,0
DA:468,0
DA:469,0
DA:470,0
DA:471,0
DA:474,0
DA:475,0
DA:476,0
DA:477,0
DA:478,0
DA:480,0
DA:481,0
DA:484,1
DA:485,1
DA:486,1
DA:489,1
DA:490,1
DA:492,1
DA:495,1
DA:496,2
DA:497,1
DA:498,1
DA:501,1
DA:503,5
DA:504,4
DA:506,3
DA:507,3
DA:508,3
DA:509,3
DA:510,3
DA:511,3
DA:512,0
DA:513,0
DA:514,0
DA:515,1
DA:518,1
DA:519,1
DA:520,1
DA:521,0
DA:522,0
DA:524,0
DA:526,1
DA:527,1
DA:530,10
DA:531,10
DA:532,1
DA:533,9
DA:535,9
DA:536,9
DA:537,9
DA:539,16
DA:540,16
DA:541,11
DA:542,11
DA:543,11
DA:544,5
DA:545,5
DA:546,5
DA:547,5
DA:548,5
DA:549,5
DA:550,5
DA:551,5
DA:552,5
DA:553,5
DA:557,9
DA:558,9
DA:559,9
DA:560,9
DA:561,9
DA:562,9
DA:564,9
DA:565,10
DA:568,1
DA:569,1
DA:572,1
DA:573,3
DA:574,2
DA:575,2
DA:578,3
DA:579,2
DA:582,2
DA:585,2
DA:588,4
DA:589,2
DA:590,2
DA:591,2
DA:592,2
DA:593,2
DA:594,2
DA:595,2
DA:596,2
DA:597,2
DA:598,2
DA:599,2
DA:601,2
DA:602,2
DA:603,2
DA:604,2
DA:605,2
DA:606,2
DA:607,2
DA:608,2
DA:609,2
DA:610,2
DA:611,2
DA:612,2
DA:613,2
DA:614,2
DA:615,2
DA:616,2
DA:617,2
DA:618,2
DA:619,2
DA:620,2
DA:621,2
DA:624,2
DA:625,0
DA:626,2
DA:628,2
DA:632,1
DA:633,1
DA:636,1
DA:638,1
DA:641,1
DA:643,2
DA:645,2
DA:649,2
DA:650,2
DA:651,2
DA:652,2
DA:653,2
DA:654,2
DA:656,2
DA:657,2
DA:658,2
DA:659,2
DA:660,2
DA:661,2
DA:664,2
DA:668,1
DA:670,1
DA:671,1
DA:674,1
DA:675,1
DA:678,1
DA:679,3
DA:680,2
DA:681,2
DA:684,3
DA:685,2
DA:686,2
DA:687,2
DA:689,0
DA:693,2
DA:695,2
DA:696,2
DA:697,2
DA:698,2
DA:699,2
DA:700,2
DA:703,1
DA:704,1
DA:707,2
DA:708,2
DA:709,2
DA:710,2
DA:713,2
DA:715,2
DA:716,2
DA:719,2
DA:721,2
DA:722,1
DA:723,1
DA:726,1
DA:729,1
DA:730,10
DA:731,10
DA:732,10
DA:733,1
DA:736,1
DA:737,1
DA:738,1
DA:739,1
DA:740,1
DA:742,10
DA:743,10
DA:744,10
DA:747,10
DA:748,9
DA:749,9
DA:750,1
DA:751,1
DA:752,9
DA:755,10
DA:756,10
DA:757,0
DA:758,10
DA:761,10
DA:762,10
DA:763,0
DA:764,10
DA:767,10
DA:768,10
DA:769,10
DA:770,0
DA:771,10
DA:774,10
DA:775,0
DA:776,10
DA:780,1
DA:781,1
DA:782,1
DA:783,1
DA:786,1
DA:787,0
DA:789,1
DA:792,1
DA:794,1
DA:795,2
DA:798,14
DA:799,14
DA:802,14
DA:803,12
DA:804,2
DA:805,2
DA:806,2
DA:807,2
DA:808,2
DA:809,2
DA:810,2
DA:811,2
DA:812,2
DA:813,2
DA:814,0
DA:815,0
DA:816,12
DA:819,12
DA:820,1
DA:821,1
DA:822,1
DA:823,1
DA:825,14
DA:826,1
DA:827,1
DA:828,1
DA:829,1
DA:830,1
DA:831,1
DA:832,1
DA:833,1
DA:836,0
DA:837,0
DA:838,0
DA:839,0
DA:840,0
DA:841,0
DA:842,0
DA:843,0
DA:844,0
DA:845,0
DA:847,0
DA:848,11
DA:850,11
DA:851,14
DA:854,9
DA:855,9
DA:858,9
DA:859,6
DA:860,4
DA:861,5
DA:863,5
DA:864,4
DA:865,2
DA:866,3
DA:868,3
DA:869,2
DA:870,1
DA:873,1
DA:874,9
DA:877,6
DA:879,6
DA:880,6
DA:881,6
DA:884,6
DA:886,6
DA:887,6
DA:890,6
DA:892,6
DA:893,6
DA:894,6
DA:897,4
DA:899,4
DA:900,2
DA:901,2
DA:904,2
DA:905,2
DA:906,2
DA:909,2
DA:910,2
DA:913,2
DA:914,2
DA:917,2
DA:920,2
DA:923,2
DA:924,2
DA:926,2
DA:927,2
DA:928,2
DA:931,0
DA:932,0
DA:936,2
DA:938,2
DA:939,2
DA:940,2
DA:941,2
DA:942,2
DA:943,2
DA:944,2
DA:945,2
DA:946,2
DA:947,2
DA:948,2
DA:949,2
DA:950,4
DA:953,13
DA:954,13
DA:955,2
DA:956,11
DA:958,11
DA:959,27
DA:960,27
DA:961,24
DA:962,24
DA:963,24
DA:965,11
DA:966,13
DA:969,5
DA:970,5
DA:973,5
DA:975,5
DA:976,5
DA:977,81
DA:978,81
DA:979,81
DA:980,77
DA:981,7
DA:982,74
DA:985,2
DA:986,8
DA:987,8
DA:988,8
DA:989,5
DA:990,4
DA:991,4
DA:992,4
DA:995,1
DA:996,7
DA:997,7
DA:998,7
DA:999,3
DA:1000,4
DA:1003,0
DA:1004,0
DA:1005,0
DA:1006,0
DA:1007,0
DA:1008,0
DA:1009,0
DA:1010,0
DA:1011,0
DA:1012,0
DA:1013,0
DA:1014,0
DA:1015,0
DA:1016,0
DA:1019,0
DA:1020,0
DA:1021,0
DA:1022,0
DA:1023,0
DA:1024,0
DA:1029,0
DA:1030,0
DA:1031,0
DA:1032,0
DA:1033,0
DA:1034,0
DA:1035,0
DA:1041,5
DA:1042,5
DA:1043,5
DA:1044,5
DA:1045,5
DA:1048,11
DA:1049,11
DA:1050,11
DA:1051,9
DA:1052,7
DA:1053,6
DA:1054,5
DA:1055,4
DA:1056,3
DA:1057,2
DA:1058,1
DA:1059,1
DA:1061,11
DA:1064,7
DA:1065,7
DA:1066,1
DA:1067,6
DA:1069,6
DA:1070,6
DA:1072,6
DA:1073,6
DA:1075,6
DA:1077,4
DA:1078,3
DA:1079,3
DA:1080,1
DA:1081,1
DA:1082,1
DA:1083,1
DA:1087,6
DA:1089,6
DA:1090,7
DA:1093,3
DA:1095,3
DA:1096,3
DA:1097,2
DA:1099,3
DA:1102,3
DA:1104,3
DA:1105,2
DA:1106,1
DA:1109,2
DA:1110,2
DA:1112,4
DA:1114,2
DA:1115,1
DA:1116,1
DA:1117,1
DA:1120,1
DA:1121,1
DA:1123,15
DA:1124,15
DA:1125,15
DA:1126,15
DA:1129,15
DA:1130,12
DA:1131,11
DA:1132,5
DA:1133,10
DA:1134,0
DA:1137,1
DA:1138,1
DA:1139,1
DA:1142,6
DA:1143,6
DA:1144,6
DA:1147,6
DA:1148,6
DA:1149,6
DA:1150,6
DA:1151,6
DA:1152,6
DA:1153,6
DA:1154,6
DA:1158,2
DA:1159,3
DA:1165,2
DA:1166,1
DA:1167,1
DA:1169,1
DA:1178,1
DA:1179,1
DA:1180,1
DA:1181,1
DA:1184,1
DA:1185,1
DA:1186,1
DA:1187,1
DA:1188,1
DA:1191,1
DA:1192,1
DA:1193,1
DA:1194,1
DA:1197,1
DA:1198,1
DA:1199,1
DA:1200,1
DA:1203,1
DA:1204,1
DA:1205,1
DA:1206,1
DA:1207,1
DA:1208,1
DA:1209,1
DA:1210,1
DA:1213,1
DA:1214,1
DA:1215,1
DA:1216,1
DA:1217,1
DA:1218,1
DA:1219,1
DA:1220,1
DA:1223,1
DA:1224,1
DA:1225,1
DA:1226,1
DA:1229,1
DA:1230,1
DA:1231,1
DA:1232,1
DA:1233,1
DA:1234,1
DA:1235,1
DA:1237,1
DA:1238,1
DA:1239,1
DA:1240,1
DA:1241,1
DA:1244,1
DA:1245,1
DA:1246,1
DA:1247,1
DA:1248,1
DA:1249,1
DA:1250,1
DA:1251,1
DA:1252,1
DA:1253,1
DA:1254,1
DA:1255,1
DA:1257,1
DA:1258,1
DA:1259,1
DA:1260,1
DA:1261,1
DA:1264,1
DA:1265,1
DA:1266,1
DA:1267,1
DA:1268,1
DA:1269,1
DA:1270,1
DA:1271,1
DA:1273,1
DA:1274,1
DA:1275,1
DA:1276,1
DA:1277,1
DA:1278,1
DA:1279,1
DA:1281,1
DA:1282,1
DA:1283,1
DA:1284,1
DA:1285,1
DA:1288,1
DA:1289,1
DA:1290,1
DA:1291,1
DA:1292,1
DA:1293,1
DA:1294,1
DA:1295,1
DA:1296,1
DA:1297,1
DA:1299,1
DA:1300,1
DA:1301,1
DA:1302,1
DA:1303,1
DA:1304,1
DA:1307,1
DA:1308,1
DA:1309,1
DA:1310,1
DA:1311,1
DA:1312,1
DA:1313,1
DA:1314,1
DA:1315,1
DA:1316,1
DA:1317,1
DA:1318,1
DA:1319,1
DA:1320,1
DA:1321,1
DA:1322,1
DA:1323,1
DA:1324,1
DA:1325,1
DA:1326,1
DA:1328,1
DA:1329,1
DA:1330,1
DA:1331,1
DA:1332,1
DA:1333,1
DA:1334,1
DA:1337,1
DA:1338,1
DA:1339,1
DA:1340,1
DA:1341,1
DA:1342,1
DA:1344,1
DA:1345,1
DA:1346,1
DA:1347,1
DA:1350,1
DA:1351,1
DA:1352,1
DA:1355,1
DA:1356,1
DA:1357,1
DA:1360,1
DA:1361,1
DA:1362,1
DA:1363,1
DA:1364,1
DA:1365,1
DA:1367,1
DA:1368,1
DA:1369,1
DA:1370,1
DA:1373,1
DA:1374,1
DA:1375,1
DA:1376,1
DA:1378,1
DA:1379,1
DA:1380,1
DA:1381,1
DA:1382,1
DA:1383,1
DA:1384,1
DA:1387,1
DA:1388,1
DA:1389,1
DA:1390,1
DA:1392,1
DA:1393,1
DA:1394,1
DA:1395,1
DA:1396,1
DA:1399,1
DA:1400,1
DA:1401,1
DA:1402,1
DA:1404,1
DA:1405,1
DA:1408,1
DA:1409,1
DA:1412,1
DA:1413,1
DA:1416,1
DA:1417,1
DA:1418,1
DA:1421,1
DA:1422,1
DA:1423,1
DA:1424,1
DA:1426,1
DA:1427,1
DA:1428,1
DA:1431,1
DA:1432,1
DA:1435,1
DA:1436,1
DA:1437,1
DA:1456,1
DA:1458,1
DA:1459,1
DA:1462,1
DA:1463,1
DA:1466,1
DA:1467,1
DA:1469,1
DA:1470,1
DA:1471,1
DA:1482,1
DA:1484,1
DA:1485,1
DA:1487,1
DA:1488,1
DA:1491,1
DA:1492,1
DA:1494,1
DA:1495,1
DA:1496,1
DA:1508,1
DA:1510,1
DA:1511,1
DA:1513,1
DA:1514,1
DA:1517,1
DA:1518,1
DA:1520,1
DA:1521,1
DA:1522,1
DA:1524,1
DA:1525,1
DA:1527,1
DA:1528,1
DA:1531,1
DA:1532,1
DA:1534,1
DA:1535,1
DA:1536,1
DA:1560,1
DA:1562,1
DA:1563,1
DA:1566,3
DA:1567,1
DA:1570,3
DA:1571,1
DA:1572,1
DA:1573,1
DA:1575,1
DA:1576,1
DA:1579,1
DA:1580,1
DA:1582,1
DA:1583,1
DA:1584,1
DA:1601,1
DA:1603,1
DA:1604,1
DA:1606,3
DA:1607,1
DA:1609,3
DA:1610,1
DA:1611,1
DA:1612,1
DA:1614,1
DA:1615,1
DA:1618,1
DA:1619,1
DA:1621,1
DA:1622,1
DA:1623,1
DA:1639,1
DA:1641,1
DA:1642,1
DA:1645,1
DA:1646,1
DA:1649,1
DA:1650,1
DA:1652,1
DA:1653,1
DA:1656,1
DA:1657,1
DA:1660,1
DA:1661,1
DA:1662,1
DA:1666,1
DA:1668,1
DA:1669,1
DA:1670,1
DA:1671,1
DA:1672,1
DA:1674,1
DA:1675,1
DA:1678,1
DA:1679,1
DA:1681,1
DA:1682,1
DA:1683,1
DA:1685,1
DA:1686,1
DA:1688,1
DA:1689,1
DA:1692,1
DA:1693,1
DA:1694,1
DA:1695,1
DA:1696,1
DA:1697,1
DA:1698,1
DA:1700,1
DA:1701,1
DA:1703,1
DA:1704,1
DA:1705,1
DA:1708,1
DA:1709,1
DA:1711,1
DA:1712,1
DA:1713,1
DA:1714,1
DA:1715,1
DA:1716,1
DA:1717,1
DA:1718,1
DA:1719,1
DA:1720,1
DA:1723,1
DA:1724,1
DA:1727,1
DA:1730,1
DA:1731,1
DA:1732,1
DA:1733,1
DA:1734,1
DA:1735,1
DA:1736,1
DA:1738,1
DA:1739,1
DA:1740,1
DA:1741,1
DA:1744,1
DA:1745,1
DA:1746,1
DA:1747,1
DA:1748,1
DA:1749,1
DA:1750,1
DA:1751,1
DA:1752,1
DA:1753,1
DA:1754,1
DA:1755,1
DA:1756,1
DA:1757,1
DA:1758,1
DA:1759,1
DA:1760,1
DA:1761,1
DA:1762,1
DA:1764,1
DA:1765,1
DA:1766,1
DA:1767,1
DA:1770,1
DA:1771,1
DA:1772,1
DA:1773,1
DA:1774,1
DA:1775,1
DA:1776,1
DA:1777,1
DA:1778,1
DA:1779,1
DA:1780,1
DA:1781,1
DA:1782,1
DA:1784,1
DA:1785,1
DA:1786,1
DA:1787,1
DA:1788,1
DA:1789,1
DA:1792,1
DA:1793,1
DA:1794,1
DA:1795,1
DA:1796,1
DA:1797,1
DA:1798,1
DA:1799,1
DA:1800,1
DA:1801,1
DA:1802,1
DA:1803,1
DA:1804,1
DA:1806,1
DA:1807,1
DA:1808,1
DA:1809,1
DA:1810,1
DA:1813,1
DA:1814,1
DA:1817,1
DA:1818,1
DA:1819,1
DA:1820,1
DA:1821,1
DA:1822,1
DA:1823,1
DA:1824,1
DA:1825,1
DA:1826,1
DA:1827,1
DA:1828,1
DA:1829,1
DA:1832,1
DA:1833,1
DA:1836,1
DA:1837,1
DA:1838,1
DA:1839,1
DA:1842,2
DA:1843,1
DA:1844,1
DA:1845,1
DA:1846,1
DA:1849,1
DA:1850,1
DA:1853,1
DA:1854,1
DA:1855,1
DA:1861,1
DA:1864,1
DA:1865,1
DA:1866,1
DA:1867,1
DA:1868,1
DA:1869,1
DA:1870,1
DA:1873,1
DA:1874,1
DA:1875,1
DA:1876,1
DA:1878,1
DA:1879,1
DA:1882,1
DA:1883,1
DA:1886,1
DA:1887,1
DA:1888,1
DA:1903,1
DA:1906,1
DA:1907,1
DA:1908,1
DA:1909,1
DA:1910,1
DA:1911,1
DA:1912,1
DA:1915,1
DA:1918,1
DA:1921,7
DA:1922,6
DA:1923,6
DA:1924,6
DA:1927,1
DA:1928,1
DA:1931,1
DA:1932,1
DA:1934,1
DA:1935,1
DA:1936,1
DA:1937,1
DA:1938,1
DA:1939,1
DA:1940,1
DA:1943,1
DA:1944,1
DA:1945,1
DA:1946,1
DA:1947,1
DA:1950,1
DA:1951,1
DA:1953,1
DA:1954,1
DA:1955,1
DA:1956,1
DA:1957,1
DA:1960,1
DA:1961,1
DA:1963,1
DA:1964,1
DA:1965,1
DA:1966,1
DA:1967,1
DA:1970,1
DA:1971,1
DA:1973,1
DA:1974,1
DA:1975,1
DA:1976,1
DA:1977,1
DA:1980,1
DA:1981,1
DA:1984,1
DA:1985,1
DA:1986,1
DA:1989,1
DA:1990,1
DA:1993,1
DA:1996,1
DA:1997,1
DA:2000,1
DA:2001,1
DA:2004,1
DA:2005,1
DA:2006,1
DA:2007,1
DA:2008,1
DA:2009,1
DA:2012,1
DA:2013,1
DA:2014,1
DA:2015,1
DA:2016,1
DA:2019,1
DA:2020,1
DA:2021,1
DA:2022,1
DA:2023,1
DA:2026,1
DA:2027,1
DA:2028,1
DA:2031,1
DA:2032,1
DA:2035,1
DA:2036,1
DA:2037,1
DA:2038,1
DA:2039,1
DA:2040,1
DA:2041,1
DA:2042,1
DA:2043,1
DA:2044,1
DA:2045,1
DA:2046,1
DA:2047,1
DA:2048,1
DA:2049,1
DA:2050,1
DA:2051,1
DA:2052,1
DA:2053,1
DA:2054,1
DA:2055,1
DA:2056,1
DA:2057,1
DA:2058,1
DA:2059,1
DA:2060,1
DA:2061,1
DA:2062,1
DA:2063,1
DA:2064,1
DA:2065,1
DA:2066,1
DA:2067,1
DA:2068,1
DA:2069,1
DA:2070,1
DA:2071,1
DA:2072,1
DA:2073,1
DA:2074,1
DA:2075,1
DA:2076,1
DA:2077,1
DA:2078,1
DA:2079,1
DA:2080,1
DA:2081,1
DA:2082,1
DA:2083,1
DA:2084,1
DA:2085,1
DA:2086,1
DA:2087,1
DA:2088,1
DA:2089,1
DA:2090,1
DA:2091,1
DA:2092,1
DA:2093,1
DA:2094,1
DA:2095,1
DA:2096,1
DA:2097,1
DA:2098,1
DA:2099,1
DA:2100,1
DA:2101,1
DA:2104,1
DA:2107,1
DA:2115,1
DA:2116,1
DA:2119,3
DA:2120,2
DA:2122,1
DA:2125,1
DA:2126,1
DA:2127,1
DA:2130,1
DA:2131,1
DA:2132,1
DA:2133,1
DA:2134,1
DA:2137,1
DA:2138,1
DA:2139,1
DA:2142,1
DA:2143,1
DA:2144,1
DA:2145,1
DA:2148,1
DA:2149,1
DA:2150,1
DA:2152,1
DA:2153,1
DA:2154,1
DA:2155,1
DA:2156,1
DA:2157,1
DA:2158,1
DA:2161,1
DA:2162,1
DA:2163,1
DA:2164,1
DA:2165,1
DA:2166,1
DA:2167,1
DA:2170,1
DA:2171,1
DA:2172,1
DA:2174,1
DA:2175,1
DA:2176,1
DA:2177,1
DA:2178,1
DA:2179,1
DA:2182,1
DA:2183,1
DA:2184,1
DA:2185,1
DA:2186,1
DA:2187,1
DA:2190,1
DA:2191,1
DA:2192,1
DA:2194,1
DA:2195,1
DA:2196,1
DA:2197,1
DA:2198,1
DA:2199,1
DA:2200,1
DA:2203,1
DA:2204,1
DA:2205,1
DA:2206,1
DA:2207,1
DA:2208,1
DA:2209,1
DA:2212,1
DA:2213,1
DA:2216,1
DA:2217,1
DA:2218,1
DA:2241,1
DA:2244,1
DA:2245,1
DA:2246,1
DA:2247,1
DA:2248,1
DA:2249,1
DA:2250,1
DA:2251,1
DA:2252,1
DA:2253,1
DA:2254,1
DA:2255,1
DA:2256,1
DA:2257,1
DA:2258,1
DA:2259,1
DA:2260,1
DA:2261,1
DA:2262,1
DA:2263,1
DA:2264,1
DA:2265,1
DA:2266,1
DA:2267,1
DA:2268,1
DA:2269,1
DA:2270,1
DA:2271,1
DA:2272,1
DA:2273,1
DA:2274,1
DA:2275,1
DA:2276,1
DA:2278,1
DA:2281,1
DA:2282,1
DA:2283,1
DA:2286,1
DA:2287,4
DA:2290,1
DA:2291,1
DA:2294,1
DA:2295,4
DA:2298,1
DA:2299,1
DA:2300,1
DA:2301,1
DA:2303,1
DA:2304,1
DA:2307,1
DA:2308,1
DA:2311,1
DA:2312,1
DA:2313,50
DA:2314,1
DA:2317,1
DA:2318,1
DA:2319,1
DA:2320,1
DA:2321,1
DA:2322,1
DA:2323,1
DA:2324,1
DA:2325,1
DA:2326,1
DA:2327,1
DA:2328,1
DA:2329,1
DA:2330,1
DA:2331,1
DA:2332,1
DA:2333,1
DA:2334,1
DA:2335,1
DA:2336,1
DA:2337,1
DA:2338,1
DA:2339,1
DA:2340,1
DA:2341,1
DA:2342,1
DA:2343,1
DA:2344,1
DA:2345,1
DA:2346,1
DA:2347,1
DA:2348,1
DA:2349,1
DA:2351,1
DA:2354,1
DA:2355,1
DA:2358,1
DA:2361,2
DA:2364,1
DA:2365,1
DA:2368,1
DA:2369,1
DA:2371,1
DA:2372,1
BRF:0
BRH:0
LF:1501
LH:1331
end_of_record
SF:/home/nathan/Projects/valknut/src/detectors/graph.rs
FN:38,_RNvMNtNtCs64AwlgGXCHI_10valknut_rs9detectors5graphNtB2_14GraphExtractor19initialize_features
FN:28,_RNvMNtNtCs64AwlgGXCHI_10valknut_rs9detectors5graphNtB2_14GraphExtractor3new
FN:170,_RNvMs0_NtNtCs64AwlgGXCHI_10valknut_rs9detectors5graphNtB5_14GraphExtractor13detect_cycles
FN:138,_RNvMs0_NtNtCs64AwlgGXCHI_10valknut_rs9detectors5graphNtB5_14GraphExtractor16calculate_fan_in
FN:145,_RNvMs0_NtNtCs64AwlgGXCHI_10valknut_rs9detectors5graphNtB5_14GraphExtractor17calculate_fan_out
FN:157,_RNvMs0_NtNtCs64AwlgGXCHI_10valknut_rs9detectors5graphNtB5_14GraphExtractor28calculate_betweenness_approx
FN:179,_RNvMs0_NtNtCs64AwlgGXCHI_10valknut_rs9detectors5graphNtB5_14GraphExtractor30calculate_closeness_centrality
FN:215,_RNvMs1_NtNtCs64AwlgGXCHI_10valknut_rs9detectors5graphNtB5_15DependencyGraph10add_entity
FN:226,_RNvMs1_NtNtCs64AwlgGXCHI_10valknut_rs9detectors5graphNtB5_15DependencyGraph14add_dependency
FN:207,_RNvMs1_NtNtCs64AwlgGXCHI_10valknut_rs9detectors5graphNtB5_15DependencyGraph3new
FN:234,_RNvMs1_NtNtCs64AwlgGXCHI_10valknut_rs9detectors5graphNtB5_15DependencyGraph8get_node
FN:127,_RNvXs5_NtNtCs64AwlgGXCHI_10valknut_rs9detectors5graphNtB5_14GraphExtractorNtNtNtB9_4core10featureset16FeatureExtractor15supports_entity
FN:86,_RNvXs5_NtNtCs64AwlgGXCHI_10valknut_rs9detectors5graphNtB5_14GraphExtractorNtNtNtB9_4core10featureset16FeatureExtractor4name
FN:98,_RNvXs5_NtNtCs64AwlgGXCHI_10valknut_rs9detectors5graphNtB5_14GraphExtractorNtNtNtB9_4core10featureset16FeatureExtractor7extract
FN:90,_RNvXs5_NtNtCs64AwlgGXCHI_10valknut_rs9detectors5graphNtB5_14GraphExtractorNtNtNtB9_4core10featureset16FeatureExtractor8features
FN:343,_RINvMs2_NtNtCs64AwlgGXCHI_10valknut_rs9detectors5graphNtB6_25ConcurrentDependencyGraph13process_batchpppEBa_
FN:321,_RNCNCNvMs2_NtNtCs64AwlgGXCHI_10valknut_rs9detectors5graphNtB9_25ConcurrentDependencyGraph18detect_cycles_fasts_00Bd_
FN:318,_RNCNvMs2_NtNtCs64AwlgGXCHI_10valknut_rs9detectors5graphNtB7_25ConcurrentDependencyGraph18detect_cycles_fast0Bb_
FN:319,_RNCNvMs2_NtNtCs64AwlgGXCHI_10valknut_rs9detectors5graphNtB7_25ConcurrentDependencyGraph18detect_cycles_fasts_0Bb_
FN:277,_RNCNvMs2_NtNtCs64AwlgGXCHI_10valknut_rs9detectors5graphNtB7_25ConcurrentDependencyGraph21add_entities_parallel0Bb_
FN:305,_RNCNvMs2_NtNtCs64AwlgGXCHI_10valknut_rs9detectors5graphNtB7_25ConcurrentDependencyGraph29analyze_dependencies_parallel0Bb_
FN:246,_RNvMs1_NtNtCs64AwlgGXCHI_10valknut_rs9detectors5graphNtB5_15DependencyGraph13detect_cycles
FN:239,_RNvMs1_NtNtCs64AwlgGXCHI_10valknut_rs9detectors5graphNtB5_15DependencyGraph32calculate_betweenness_centrality
FN:283,_RNvMs2_NtNtCs64AwlgGXCHI_10valknut_rs9detectors5graphNtB5_25ConcurrentDependencyGraph17add_entity_atomic
FN:313,_RNvMs2_NtNtCs64AwlgGXCHI_10valknut_rs9detectors5graphNtB5_25ConcurrentDependencyGraph18detect_cycles_fast
FN:274,_RNvMs2_NtNtCs64AwlgGXCHI_10valknut_rs9detectors5graphNtB5_25ConcurrentDependencyGraph21add_entities_parallel
FN:328,_RNvMs2_NtNtCs64AwlgGXCHI_10valknut_rs9detectors5graphNtB5_25ConcurrentDependencyGraph25calculate_node_centrality
FN:302,_RNvMs2_NtNtCs64AwlgGXCHI_10valknut_rs9detectors5graphNtB5_25ConcurrentDependencyGraph29analyze_dependencies_parallel
FN:265,_RNvMs2_NtNtCs64AwlgGXCHI_10valknut_rs9detectors5graphNtB5_25ConcurrentDependencyGraph3new
FN:357,_RNvXs3_NtNtCs64AwlgGXCHI_10valknut_rs9detectors5graphNtB5_15DependencyGraphNtNtCs66KPHxksi63_4core7default7Default7default
FN:79,_RNvXs_NtNtCs64AwlgGXCHI_10valknut_rs9detectors5graphNtB4_14GraphExtractorNtNtCs66KPHxksi63_4core7default7Default7default
FN:150,_RNCNvMs0_NtNtCs64AwlgGXCHI_10valknut_rs9detectors5graphNtB7_14GraphExtractor17calculate_fan_out0Bb_
FN:416,_RNCNvNtNtNtCs64AwlgGXCHI_10valknut_rs9detectors5graph5testss_19test_entity_support0B9_
FN:369,_RNCNvNtNtNtCs64AwlgGXCHI_10valknut_rs9detectors5graph5testss_20test_graph_extractor0B9_
FN:416,_RNvNtNtNtCs64AwlgGXCHI_10valknut_rs9detectors5graph5testss_19test_entity_support
FN:369,_RNvNtNtNtCs64AwlgGXCHI_10valknut_rs9detectors5graph5testss_20test_graph_extractor
FN:400,_RNvNtNtNtCs64AwlgGXCHI_10valknut_rs9detectors5graph5testss_21test_dependency_graph
FNDA:2,_RNvMNtNtCs64AwlgGXCHI_10valknut_rs9detectors5graphNtB2_14GraphExtractor19initialize_features
FNDA:2,_RNvMNtNtCs64AwlgGXCHI_10valknut_rs9detectors5graphNtB2_14GraphExtractor3new
FNDA:1,_RNvMs0_NtNtCs64AwlgGXCHI_10valknut_rs9detectors5graphNtB5_14GraphExtractor13detect_cycles
FNDA:3,_RNvMs0_NtNtCs64AwlgGXCHI_10valknut_rs9detectors5graphNtB5_14GraphExtractor16calculate_fan_in
FNDA:3,_RNvMs0_NtNtCs64AwlgGXCHI_10valknut_rs9detectors5graphNtB5_14GraphExtractor17calculate_fan_out
FNDA:1,_RNvMs0_NtNtCs64AwlgGXCHI_10valknut_rs9detectors5graphNtB5_14GraphExtractor28calculate_betweenness_approx
FNDA:1,_RNvMs0_NtNtCs64AwlgGXCHI_10valknut_rs9detectors5graphNtB5_14GraphExtractor30calculate_closeness_centrality
FNDA:6,_RNvMs1_NtNtCs64AwlgGXCHI_10valknut_rs9detectors5graphNtB5_15DependencyGraph10add_entity
FNDA:3,_RNvMs1_NtNtCs64AwlgGXCHI_10valknut_rs9detectors5graphNtB5_15DependencyGraph14add_dependency
FNDA:1,_RNvMs1_NtNtCs64AwlgGXCHI_10valknut_rs9detectors5graphNtB5_15DependencyGraph3new
FNDA:4,_RNvMs1_NtNtCs64AwlgGXCHI_10valknut_rs9detectors5graphNtB5_15DependencyGraph8get_node
FNDA:3,_RNvXs5_NtNtCs64AwlgGXCHI_10valknut_rs9detectors5graphNtB5_14GraphExtractorNtNtNtB9_4core10featureset16FeatureExtractor15supports_entity
FNDA:1,_RNvXs5_NtNtCs64AwlgGXCHI_10valknut_rs9detectors5graphNtB5_14GraphExtractorNtNtNtB9_4core10featureset16FeatureExtractor4name
FNDA:1,_RNvXs5_NtNtCs64AwlgGXCHI_10valknut_rs9detectors5graphNtB5_14GraphExtractorNtNtNtB9_4core10featureset16FeatureExtractor7extract
FNDA:1,_RNvXs5_NtNtCs64AwlgGXCHI_10valknut_rs9detectors5graphNtB5_14GraphExtractorNtNtNtB9_4core10featureset16FeatureExtractor8features
FNDA:0,_RINvMs2_NtNtCs64AwlgGXCHI_10valknut_rs9detectors5graphNtB6_25ConcurrentDependencyGraph13process_batchpppEBa_
FNDA:0,_RNCNCNvMs2_NtNtCs64AwlgGXCHI_10valknut_rs9detectors5graphNtB9_25ConcurrentDependencyGraph18detect_cycles_fasts_00Bd_
FNDA:0,_RNCNvMs2_NtNtCs64AwlgGXCHI_10valknut_rs9detectors5graphNtB7_25ConcurrentDependencyGraph18detect_cycles_fast0Bb_
FNDA:0,_RNCNvMs2_NtNtCs64AwlgGXCHI_10valknut_rs9detectors5graphNtB7_25ConcurrentDependencyGraph18detect_cycles_fasts_0Bb_
FNDA:0,_RNCNvMs2_NtNtCs64AwlgGXCHI_10valknut_rs9detectors5graphNtB7_25ConcurrentDependencyGraph21add_entities_parallel0Bb_
FNDA:0,_RNCNvMs2_NtNtCs64AwlgGXCHI_10valknut_rs9detectors5graphNtB7_25ConcurrentDependencyGraph29analyze_dependencies_parallel0Bb_
FNDA:0,_RNvMs1_NtNtCs64AwlgGXCHI_10valknut_rs9detectors5graphNtB5_15DependencyGraph13detect_cycles
FNDA:0,_RNvMs1_NtNtCs64AwlgGXCHI_10valknut_rs9detectors5graphNtB5_15DependencyGraph32calculate_betweenness_centrality
FNDA:0,_RNvMs2_NtNtCs64AwlgGXCHI_10valknut_rs9detectors5graphNtB5_25ConcurrentDependencyGraph17add_entity_atomic
FNDA:0,_RNvMs2_NtNtCs64AwlgGXCHI_10valknut_rs9detectors5graphNtB5_25ConcurrentDependencyGraph18detect_cycles_fast
FNDA:0,_RNvMs2_NtNtCs64AwlgGXCHI_10valknut_rs9detectors5graphNtB5_25ConcurrentDependencyGraph21add_entities_parallel
FNDA:0,_RNvMs2_NtNtCs64AwlgGXCHI_10valknut_rs9detectors5graphNtB5_25ConcurrentDependencyGraph25calculate_node_centrality
FNDA:0,_RNvMs2_NtNtCs64AwlgGXCHI_10valknut_rs9detectors5graphNtB5_25ConcurrentDependencyGraph29analyze_dependencies_parallel
FNDA:0,_RNvMs2_NtNtCs64AwlgGXCHI_10valknut_rs9detectors5graphNtB5_25ConcurrentDependencyGraph3new
FNDA:0,_RNvXs3_NtNtCs64AwlgGXCHI_10valknut_rs9detectors5graphNtB5_15DependencyGraphNtNtCs66KPHxksi63_4core7default7Default7default
FNDA:0,_RNvXs_NtNtCs64AwlgGXCHI_10valknut_rs9detectors5graphNtB4_14GraphExtractorNtNtCs66KPHxksi63_4core7default7Default7default
FNDA:12,_RNCNvMs0_NtNtCs64AwlgGXCHI_10valknut_rs9detectors5graphNtB7_14GraphExtractor17calculate_fan_out0Bb_
FNDA:1,_RNCNvNtNtNtCs64AwlgGXCHI_10valknut_rs9detectors5graph5testss_19test_entity_support0B9_
FNDA:1,_RNCNvNtNtNtCs64AwlgGXCHI_10valknut_rs9detectors5graph5testss_20test_graph_extractor0B9_
FNDA:1,_RNvNtNtNtCs64AwlgGXCHI_10valknut_rs9detectors5graph5testss_19test_entity_support
FNDA:1,_RNvNtNtNtCs64AwlgGXCHI_10valknut_rs9detectors5graph5testss_20test_graph_extractor
FNDA:1,_RNvNtNtNtCs64AwlgGXCHI_10valknut_rs9detectors5graph5testss_21test_dependency_graph
FNF:37
FNH:21
DA:28,2
DA:29,2
DA:30,2
DA:31,2
DA:33,2
DA:34,2
DA:35,2
DA:38,2
DA:39,2
DA:40,2
DA:44,2
DA:45,2
DA:47,2
DA:51,2
DA:52,2
DA:54,2
DA:58,2
DA:59,2
DA:61,2
DA:65,2
DA:66,2
DA:68,2
DA:72,2
DA:73,2
DA:75,2
DA:79,0
DA:80,0
DA:81,0
DA:86,1
DA:87,1
DA:88,1
DA:90,1
DA:91,1
DA:92,1
DA:98,1
DA:125,1
DA:127,3
DA:129,2
DA:130,3
DA:131,3
DA:133,3
DA:138,3
DA:141,3
DA:142,3
DA:145,3
DA:148,3
DA:149,3
DA:150,12
DA:151,3
DA:153,3
DA:154,3
DA:157,1
DA:162,1
DA:163,1
DA:165,1
DA:166,1
DA:167,1
DA:170,1
DA:175,1
DA:176,1
DA:179,1
DA:184,1
DA:185,1
DA:187,1
DA:188,0
DA:190,1
DA:192,1
DA:207,1
DA:208,1
DA:209,1
DA:210,1
DA:211,1
DA:212,1
DA:215,6
DA:216,6
DA:217,3
DA:218,3
DA:220,3
DA:221,3
DA:222,3
DA:223,6
DA:226,3
DA:227,3
DA:228,3
DA:230,3
DA:231,3
DA:234,4
DA:235,4
DA:236,4
DA:239,0
DA:242,0
DA:243,0
DA:246,0
DA:249,0
DA:250,0
DA:265,0
DA:266,0
DA:267,0
DA:268,0
DA:269,0
DA:270,0
DA:274,0
DA:275,0
DA:276,0
DA:277,0
DA:278,0
DA:279,0
DA:280,0
DA:283,0
DA:284,0
DA:285,0
DA:286,0
DA:289,0
DA:290,0
DA:291,0
DA:294,0
DA:295,0
DA:297,0
DA:298,0
DA:302,0
DA:303,0
DA:304,0
DA:305,0
DA:306,0
DA:307,0
DA:308,0
DA:309,0
DA:310,0
DA:313,0
DA:314,0
DA:315,0
DA:317,0
DA:318,0
DA:319,0
DA:320,0
DA:321,0
DA:322,0
DA:323,0
DA:324,0
DA:325,0
DA:328,0
DA:329,0
DA:330,0
DA:331,0
DA:332,0
DA:335,0
DA:337,0
DA:339,0
DA:343,0
DA:344,0
DA:345,0
DA:346,0
DA:347,0
DA:349,0
DA:350,0
DA:351,0
DA:352,0
DA:353,0
DA:357,0
DA:358,0
DA:359,0
DA:369,1
DA:370,1
DA:372,1
DA:373,1
DA:376,1
DA:381,1
DA:383,1
DA:384,1
DA:386,1
DA:389,1
DA:390,1
DA:391,1
DA:392,1
DA:393,1
DA:396,1
DA:397,1
DA:400,1
DA:401,1
DA:404,1
DA:405,1
DA:406,1
DA:409,1
DA:410,1
DA:411,1
DA:412,1
DA:413,1
DA:416,1
DA:417,1
DA:419,1
DA:420,1
DA:421,1
DA:423,1
DA:424,1
DA:425,1
DA:426,1
BRF:0
BRH:0
LF:206
LH:125
end_of_record
SF:/home/nathan/Projects/valknut/src/detectors/lsh.rs
FN:222,_RNCNvMs0_NtNtCs64AwlgGXCHI_10valknut_rs9detectors3lshNtB7_12LshExtractor28generate_signatures_parallel0Bb_
FN:219,_RNvMs0_NtNtCs64AwlgGXCHI_10valknut_rs9detectors3lshNtB5_12LshExtractor28generate_signatures_parallel
FN:161,_RNvMs0_NtNtCs64AwlgGXCHI_10valknut_rs9detectors3lshNtB5_12LshExtractor31generate_minhash_signature_simd
FN:132,_RNvXs4_NtNtCs64AwlgGXCHI_10valknut_rs9detectors3lshNtB5_12LshExtractorNtNtNtB9_4core10featureset16FeatureExtractor15supports_entity
FN:93,_RNvXs_NtNtCs64AwlgGXCHI_10valknut_rs9detectors3lshNtB4_12LshExtractorNtNtCs66KPHxksi63_4core7default7Default7default
FN:537,_RNvNtNtNtCs64AwlgGXCHI_10valknut_rs9detectors3lsh5testss_14test_lsh_index
FN:478,_RNvNtNtNtCs64AwlgGXCHI_10valknut_rs9detectors3lsh5testss_18test_lsh_extractor
FN:503,_RNvNtNtNtCs64AwlgGXCHI_10valknut_rs9detectors3lsh5testss_21test_shingle_creation
FN:512,_RNvNtNtNtCs64AwlgGXCHI_10valknut_rs9detectors3lsh5testss_22test_minhash_signature
FN:522,_RNvNtNtNtCs64AwlgGXCHI_10valknut_rs9detectors3lsh5testss_23test_jaccard_similarity
FN:243,_RNCNvMs0_NtNtCs64AwlgGXCHI_10valknut_rs9detectors3lshNtB7_12LshExtractor15create_shingles0Bb_
FN:327,_RNCNvMs0_NtNtCs64AwlgGXCHI_10valknut_rs9detectors3lshNtB7_12LshExtractor18jaccard_similarity0Bb_
FN:314,_RNCNvMs0_NtNtCs64AwlgGXCHI_10valknut_rs9detectors3lshNtB7_12LshExtractor19compare_with_others0Bb_
FN:316,_RNCNvMs0_NtNtCs64AwlgGXCHI_10valknut_rs9detectors3lshNtB7_12LshExtractor19compare_with_otherss_0Bb_
FN:362,_RNCNvMs1_NtNtCs64AwlgGXCHI_10valknut_rs9detectors3lshNtB7_16MinHashSignature18jaccard_similarity0Bb_
FN:459,_RNCNvMs2_NtNtCs64AwlgGXCHI_10valknut_rs9detectors3lshNtB7_8LshIndex15find_candidates0Bb_
FN:47,_RNvMNtNtCs64AwlgGXCHI_10valknut_rs9detectors3lshNtB2_12LshExtractor11with_params
FN:59,_RNvMNtNtCs64AwlgGXCHI_10valknut_rs9detectors3lshNtB2_12LshExtractor19initialize_features
FN:35,_RNvMNtNtCs64AwlgGXCHI_10valknut_rs9detectors3lshNtB2_12LshExtractor3new
FN:283,_RNvMs0_NtNtCs64AwlgGXCHI_10valknut_rs9detectors3lshNtB5_12LshExtractor14hash_with_seed
FN:259,_RNvMs0_NtNtCs64AwlgGXCHI_10valknut_rs9detectors3lshNtB5_12LshExtractor14normalize_code
FN:236,_RNvMs0_NtNtCs64AwlgGXCHI_10valknut_rs9detectors3lshNtB5_12LshExtractor15create_shingles
FN:322,_RNvMs0_NtNtCs64AwlgGXCHI_10valknut_rs9detectors3lshNtB5_12LshExtractor18jaccard_similarity
FN:291,_RNvMs0_NtNtCs64AwlgGXCHI_10valknut_rs9detectors3lshNtB5_12LshExtractor19compare_with_others
FN:140,_RNvMs0_NtNtCs64AwlgGXCHI_10valknut_rs9detectors3lshNtB5_12LshExtractor26generate_minhash_signature
FN:354,_RNvMs1_NtNtCs64AwlgGXCHI_10valknut_rs9detectors3lshNtB5_16MinHashSignature18jaccard_similarity
FN:345,_RNvMs1_NtNtCs64AwlgGXCHI_10valknut_rs9detectors3lshNtB5_16MinHashSignature3new
FN:393,_RNvMs2_NtNtCs64AwlgGXCHI_10valknut_rs9detectors3lshNtB5_8LshIndex10add_entity
FN:420,_RNvMs2_NtNtCs64AwlgGXCHI_10valknut_rs9detectors3lshNtB5_8LshIndex15find_candidates
FN:384,_RNvMs2_NtNtCs64AwlgGXCHI_10valknut_rs9detectors3lshNtB5_8LshIndex3new
FN:464,_RNvMs2_NtNtCs64AwlgGXCHI_10valknut_rs9detectors3lshNtB5_8LshIndex9hash_band
FN:100,_RNvXs4_NtNtCs64AwlgGXCHI_10valknut_rs9detectors3lshNtB5_12LshExtractorNtNtNtB9_4core10featureset16FeatureExtractor4name
FN:112,_RNvXs4_NtNtCs64AwlgGXCHI_10valknut_rs9detectors3lshNtB5_12LshExtractorNtNtNtB9_4core10featureset16FeatureExtractor7extract
FN:104,_RNvXs4_NtNtCs64AwlgGXCHI_10valknut_rs9detectors3lshNtB5_12LshExtractorNtNtNtB9_4core10featureset16FeatureExtractor8features
FN:478,_RNCNvNtNtNtCs64AwlgGXCHI_10valknut_rs9detectors3lsh5testss_18test_lsh_extractor0B9_
FN:518,_RNCNvNtNtNtCs64AwlgGXCHI_10valknut_rs9detectors3lsh5testss_22test_minhash_signature0B9_
FNDA:0,_RNCNvMs0_NtNtCs64AwlgGXCHI_10valknut_rs9detectors3lshNtB7_12LshExtractor28generate_signatures_parallel0Bb_
FNDA:0,_RNvMs0_NtNtCs64AwlgGXCHI_10valknut_rs9detectors3lshNtB5_12LshExtractor28generate_signatures_parallel
FNDA:0,_RNvMs0_NtNtCs64AwlgGXCHI_10valknut_rs9detectors3lshNtB5_12LshExtractor31generate_minhash_signature_simd
FNDA:0,_RNvXs4_NtNtCs64AwlgGXCHI_10valknut_rs9detectors3lshNtB5_12LshExtractorNtNtNtB9_4core10featureset16FeatureExtractor15supports_entity
FNDA:0,_RNvXs_NtNtCs64AwlgGXCHI_10valknut_rs9detectors3lshNtB4_12LshExtractorNtNtCs66KPHxksi63_4core7default7Default7default
FNDA:1,_RNvNtNtNtCs64AwlgGXCHI_10valknut_rs9detectors3lsh5testss_14test_lsh_index
FNDA:1,_RNvNtNtNtCs64AwlgGXCHI_10valknut_rs9detectors3lsh5testss_18test_lsh_extractor
FNDA:1,_RNvNtNtNtCs64AwlgGXCHI_10valknut_rs9detectors3lsh5testss_21test_shingle_creation
FNDA:1,_RNvNtNtNtCs64AwlgGXCHI_10valknut_rs9detectors3lsh5testss_22test_minhash_signature
FNDA:1,_RNvNtNtNtCs64AwlgGXCHI_10valknut_rs9detectors3lsh5testss_23test_jaccard_similarity
FNDA:20,_RNCNvMs0_NtNtCs64AwlgGXCHI_10valknut_rs9detectors3lshNtB7_12LshExtractor15create_shingles0Bb_
FNDA:8,_RNCNvMs0_NtNtCs64AwlgGXCHI_10valknut_rs9detectors3lshNtB7_12LshExtractor18jaccard_similarity0Bb_
FNDA:0,_RNCNvMs0_NtNtCs64AwlgGXCHI_10valknut_rs9detectors3lshNtB7_12LshExtractor19compare_with_others0Bb_
FNDA:0,_RNCNvMs0_NtNtCs64AwlgGXCHI_10valknut_rs9detectors3lshNtB7_12LshExtractor19compare_with_otherss_0Bb_
FNDA:8,_RNCNvMs1_NtNtCs64AwlgGXCHI_10valknut_rs9detectors3lshNtB7_16MinHashSignature18jaccard_similarity0Bb_
FNDA:0,_RNCNvMs2_NtNtCs64AwlgGXCHI_10valknut_rs9detectors3lshNtB7_8LshIndex15find_candidates0Bb_
FNDA:2,_RNvMNtNtCs64AwlgGXCHI_10valknut_rs9detectors3lshNtB2_12LshExtractor11with_params
FNDA:4,_RNvMNtNtCs64AwlgGXCHI_10valknut_rs9detectors3lshNtB2_12LshExtractor19initialize_features
FNDA:2,_RNvMNtNtCs64AwlgGXCHI_10valknut_rs9detectors3lshNtB2_12LshExtractor3new
FNDA:1328,_RNvMs0_NtNtCs64AwlgGXCHI_10valknut_rs9detectors3lshNtB5_12LshExtractor14hash_with_seed
FNDA:3,_RNvMs0_NtNtCs64AwlgGXCHI_10valknut_rs9detectors3lshNtB5_12LshExtractor14normalize_code
FNDA:3,_RNvMs0_NtNtCs64AwlgGXCHI_10valknut_rs9detectors3lshNtB5_12LshExtractor15create_shingles
FNDA:2,_RNvMs0_NtNtCs64AwlgGXCHI_10valknut_rs9detectors3lshNtB5_12LshExtractor18jaccard_similarity
FNDA:1,_RNvMs0_NtNtCs64AwlgGXCHI_10valknut_rs9detectors3lshNtB5_12LshExtractor19compare_with_others
FNDA:2,_RNvMs0_NtNtCs64AwlgGXCHI_10valknut_rs9detectors3lshNtB5_12LshExtractor26generate_minhash_signature
FNDA:1,_RNvMs1_NtNtCs64AwlgGXCHI_10valknut_rs9detectors3lshNtB5_16MinHashSignature18jaccard_similarity
FNDA:2,_RNvMs1_NtNtCs64AwlgGXCHI_10valknut_rs9detectors3lshNtB5_16MinHashSignature3new
FNDA:2,_RNvMs2_NtNtCs64AwlgGXCHI_10valknut_rs9detectors3lshNtB5_8LshIndex10add_entity
FNDA:1,_RNvMs2_NtNtCs64AwlgGXCHI_10valknut_rs9detectors3lshNtB5_8LshIndex15find_candidates
FNDA:1,_RNvMs2_NtNtCs64AwlgGXCHI_10valknut_rs9detectors3lshNtB5_8LshIndex3new
FNDA:12,_RNvMs2_NtNtCs64AwlgGXCHI_10valknut_rs9detectors3lshNtB5_8LshIndex9hash_band
FNDA:1,_RNvXs4_NtNtCs64AwlgGXCHI_10valknut_rs9detectors3lshNtB5_12LshExtractorNtNtNtB9_4core10featureset16FeatureExtractor4name
FNDA:1,_RNvXs4_NtNtCs64AwlgGXCHI_10valknut_rs9detectors3lshNtB5_12LshExtractorNtNtNtB9_4core10featureset16FeatureExtractor7extract
FNDA:1,_RNvXs4_NtNtCs64AwlgGXCHI_10valknut_rs9detectors3lshNtB5_12LshExtractorNtNtNtB9_4core10featureset16FeatureExtractor8features
FNDA:1,_RNCNvNtNtNtCs64AwlgGXCHI_10valknut_rs9detectors3lsh5testss_18test_lsh_extractor0B9_
FNDA:1,_RNCNvNtNtNtCs64AwlgGXCHI_10valknut_rs9detectors3lsh5testss_22test_minhash_signature0B9_
FNF:36
FNH:28
DA:35,2
DA:36,2
DA:37,2
DA:38,2
DA:39,2
DA:40,2
DA:42,2
DA:43,2
DA:44,2
DA:47,2
DA:48,2
DA:49,2
DA:50,2
DA:51,2
DA:52,2
DA:54,2
DA:55,2
DA:56,2
DA:59,4
DA:60,4
DA:61,4
DA:65,4
DA:66,4
DA:68,4
DA:72,4
DA:73,4
DA:75,4
DA:79,4
DA:80,4
DA:82,4
DA:86,4
DA:87,4
DA:89,4
DA:93,0
DA:94,0
DA:95,0
DA:100,1
DA:101,1
DA:102,1
DA:104,1
DA:105,1
DA:106,1
DA:112,1
DA:130,1
DA:132,0
DA:134,0
DA:135,0
DA:140,2
DA:142,2
DA:145,2
DA:147,15
DA:148,1328
DA:149,1328
DA:150,1328
DA:151,392
DA:152,936
DA:156,2
DA:157,2
DA:161,0
DA:162,0
DA:163,0
DA:166,0
DA:167,0
DA:169,0
DA:171,0
DA:172,0
DA:173,0
DA:174,0
DA:175,0
DA:176,0
DA:177,0
DA:178,0
DA:179,0
DA:180,0
DA:181,0
DA:182,0
DA:183,0
DA:184,0
DA:185,0
DA:186,0
DA:187,0
DA:188,0
DA:189,0
DA:190,0
DA:191,0
DA:192,0
DA:193,0
DA:194,0
DA:195,0
DA:196,0
DA:197,0
DA:198,0
DA:199,0
DA:200,0
DA:201,0
DA:202,0
DA:203,0
DA:206,0
DA:207,0
DA:208,0
DA:209,0
DA:210,0
DA:214,0
DA:215,0
DA:219,0
DA:220,0
DA:221,0
DA:222,0
DA:225,0
DA:231,0
DA:232,0
DA:233,0
DA:236,3
DA:238,3
DA:241,3
DA:242,3
DA:243,20
DA:244,3
DA:247,3
DA:248,3
DA:249,16
DA:250,16
DA:251,16
DA:252,16
DA:253,0
DA:255,3
DA:256,3
DA:259,3
DA:260,3
DA:262,7
DA:263,7
DA:266,7
DA:267,0
DA:268,7
DA:275,7
DA:276,7
DA:279,3
DA:280,3
DA:283,1328
DA:284,1328
DA:285,1328
DA:286,1328
DA:287,1328
DA:288,1328
DA:291,1
DA:292,1
DA:293,1
DA:294,1
DA:295,1
DA:296,1
DA:297,1
DA:300,1
DA:301,0
DA:302,0
DA:303,0
DA:305,0
DA:306,0
DA:307,0
DA:310,1
DA:311,1
DA:312,0
DA:314,0
DA:315,0
DA:316,0
DA:318,0
DA:319,1
DA:322,2
DA:323,2
DA:324,0
DA:325,2
DA:327,8
DA:328,2
DA:329,2
DA:345,2
DA:346,2
DA:347,2
DA:348,2
DA:349,2
DA:350,2
DA:351,2
DA:354,1
DA:355,1
DA:356,0
DA:357,1
DA:359,1
DA:360,1
DA:361,1
DA:362,8
DA:363,1
DA:365,1
DA:366,1
DA:384,1
DA:385,1
DA:386,1
DA:387,1
DA:388,1
DA:389,1
DA:390,1
DA:393,2
DA:394,2
DA:397,2
DA:399,8
DA:400,8
DA:401,8
DA:403,8
DA:404,8
DA:405,8
DA:406,8
DA:407,8
DA:411,10
DA:412,8
DA:413,8
DA:416,2
DA:417,2
DA:420,1
DA:421,1
DA:422,1
DA:423,0
DA:426,1
DA:427,1
DA:430,4
DA:431,4
DA:432,4
DA:434,4
DA:435,4
DA:436,4
DA:438,4
DA:439,10
DA:440,6
DA:441,2
DA:442,4
DA:444,0
DA:445,0
DA:449,1
DA:450,2
DA:451,1
DA:452,1
DA:453,1
DA:454,1
DA:455,0
DA:459,1
DA:460,1
DA:461,1
DA:464,12
DA:465,12
DA:466,12
DA:467,12
DA:468,12
DA:478,1
DA:479,1
DA:481,1
DA:482,1
DA:484,1
DA:489,1
DA:491,1
DA:492,1
DA:494,1
DA:496,1
DA:497,1
DA:498,1
DA:499,1
DA:500,1
DA:503,1
DA:504,1
DA:505,1
DA:506,1
DA:508,1
DA:509,1
DA:512,1
DA:513,1
DA:514,1
DA:515,1
DA:517,1
DA:518,1
DA:519,1
DA:522,1
DA:523,1
DA:524,1
DA:525,1
DA:527,1
DA:529,1
DA:530,1
DA:532,1
DA:533,1
DA:534,1
DA:537,1
DA:538,1
DA:540,1
DA:541,1
DA:543,1
DA:544,1
DA:546,1
DA:547,1
DA:548,1
BRF:0
BRH:0
LF:304
LH:221
end_of_record
SF:/home/nathan/Projects/valknut/src/detectors/names_simple.rs
FN:575,_RNCNvNtNtNtCs64AwlgGXCHI_10valknut_rs9detectors12names_simple5testss_27test_analyze_files_disabled0B9_
FN:694,_RNCNvNtNtNtCs64AwlgGXCHI_10valknut_rs9detectors12names_simple5testss_28test_check_semantic_mismatch0B9_
FN:722,_RNCNvNtNtNtCs64AwlgGXCHI_10valknut_rs9detectors12names_simple5testss_28test_generate_name_proposals0B9_
FN:755,_RNCNvNtNtNtCs64AwlgGXCHI_10valknut_rs9detectors12names_simple5testss_29test_analyze_file_integration0B9_
FN:592,_RNvNtNtNtCs64AwlgGXCHI_10valknut_rs9detectors12names_simple5testss_20test_detect_language
FN:551,_RNvNtNtNtCs64AwlgGXCHI_10valknut_rs9detectors12names_simple5testss_25test_names_config_default
FN:575,_RNvNtNtNtCs64AwlgGXCHI_10valknut_rs9detectors12names_simple5testss_27test_analyze_files_disabled
FN:726,_RNvNtNtNtCs64AwlgGXCHI_10valknut_rs9detectors12names_simple5testss_27test_calculate_impact_score
FN:787,_RNvNtNtNtCs64AwlgGXCHI_10valknut_rs9detectors12names_simple5testss_27test_mismatch_type_variants
FN:816,_RNvNtNtNtCs64AwlgGXCHI_10valknut_rs9detectors12names_simple5testss_27test_type_category_variants
FN:672,_RNvNtNtNtCs64AwlgGXCHI_10valknut_rs9detectors12names_simple5testss_28test_check_semantic_mismatch
FN:699,_RNvNtNtNtCs64AwlgGXCHI_10valknut_rs9detectors12names_simple5testss_28test_generate_name_proposals
FN:755,_RNvNtNtNtCs64AwlgGXCHI_10valknut_rs9detectors12names_simple5testss_29test_analyze_file_integration
FN:827,_RNvNtNtNtCs64AwlgGXCHI_10valknut_rs9detectors12names_simple5testss_31test_execution_pattern_variants
FN:650,_RNvNtNtNtCs64AwlgGXCHI_10valknut_rs9detectors12names_simple5testss_31test_extract_behavior_signature
FN:562,_RNvNtNtNtCs64AwlgGXCHI_10valknut_rs9detectors12names_simple5testss_34test_simple_name_analyzer_creation
FN:624,_RNvNtNtNtCs64AwlgGXCHI_10valknut_rs9detectors12names_simple5testss_36test_extract_function_from_line_rust
FN:604,_RNvNtNtNtCs64AwlgGXCHI_10valknut_rs9detectors12names_simple5testss_38test_extract_function_from_line_python
FN:203,_RNCNvMs_NtNtCs64AwlgGXCHI_10valknut_rs9detectors12names_simpleNtB6_18SimpleNameAnalyzer12analyze_file0Ba_
FN:183,_RNCNvMs_NtNtCs64AwlgGXCHI_10valknut_rs9detectors12names_simpleNtB6_18SimpleNameAnalyzer13analyze_files0Ba_
FN:523,_RNCNvMs_NtNtCs64AwlgGXCHI_10valknut_rs9detectors12names_simpleNtB6_18SimpleNameAnalyzer15detect_language0Ba_
FN:203,_RNvMs_NtNtCs64AwlgGXCHI_10valknut_rs9detectors12names_simpleNtB4_18SimpleNameAnalyzer12analyze_file
FN:183,_RNvMs_NtNtCs64AwlgGXCHI_10valknut_rs9detectors12names_simpleNtB4_18SimpleNameAnalyzer13analyze_files
FN:522,_RNvMs_NtNtCs64AwlgGXCHI_10valknut_rs9detectors12names_simpleNtB4_18SimpleNameAnalyzer15detect_language
FN:511,_RNvMs_NtNtCs64AwlgGXCHI_10valknut_rs9detectors12names_simpleNtB4_18SimpleNameAnalyzer22calculate_impact_score
FN:381,_RNvMs_NtNtCs64AwlgGXCHI_10valknut_rs9detectors12names_simpleNtB4_18SimpleNameAnalyzer23check_semantic_mismatch
FN:451,_RNvMs_NtNtCs64AwlgGXCHI_10valknut_rs9detectors12names_simpleNtB4_18SimpleNameAnalyzer23generate_name_proposals
FN:257,_RNvMs_NtNtCs64AwlgGXCHI_10valknut_rs9detectors12names_simpleNtB4_18SimpleNameAnalyzer24extract_functions_simple
FN:325,_RNvMs_NtNtCs64AwlgGXCHI_10valknut_rs9detectors12names_simpleNtB4_18SimpleNameAnalyzer26extract_behavior_signature
FN:273,_RNvMs_NtNtCs64AwlgGXCHI_10valknut_rs9detectors12names_simpleNtB4_18SimpleNameAnalyzer26extract_function_from_line
FN:173,_RNvMs_NtNtCs64AwlgGXCHI_10valknut_rs9detectors12names_simpleNtB4_18SimpleNameAnalyzer3new
FN:178,_RNvMs_NtNtCs64AwlgGXCHI_10valknut_rs9detectors12names_simpleNtB4_18SimpleNameAnalyzer7default
FN:36,_RNvXNtNtCs64AwlgGXCHI_10valknut_rs9detectors12names_simpleNtB2_11NamesConfigNtNtCs66KPHxksi63_4core7default7Default7default
FNDA:1,_RNCNvNtNtNtCs64AwlgGXCHI_10valknut_rs9detectors12names_simple5testss_27test_analyze_files_disabled0B9_
FNDA:1,_RNCNvNtNtNtCs64AwlgGXCHI_10valknut_rs9detectors12names_simple5testss_28test_check_semantic_mismatch0B9_
FNDA:1,_RNCNvNtNtNtCs64AwlgGXCHI_10valknut_rs9detectors12names_simple5testss_28test_generate_name_proposals0B9_
FNDA:1,_RNCNvNtNtNtCs64AwlgGXCHI_10valknut_rs9detectors12names_simple5testss_29test_analyze_file_integration0B9_
FNDA:1,_RNvNtNtNtCs64AwlgGXCHI_10valknut_rs9detectors12names_simple5testss_20test_detect_language
FNDA:1,_RNvNtNtNtCs64AwlgGXCHI_10valknut_rs9detectors12names_simple5testss_25test_names_config_default
FNDA:1,_RNvNtNtNtCs64AwlgGXCHI_10valknut_rs9detectors12names_simple5testss_27test_analyze_files_disabled
FNDA:1,_RNvNtNtNtCs64AwlgGXCHI_10valknut_rs9detectors12names_simple5testss_27test_calculate_impact_score
FNDA:1,_RNvNtNtNtCs64AwlgGXCHI_10valknut_rs9detectors12names_simple5testss_27test_mismatch_type_variants
FNDA:1,_RNvNtNtNtCs64AwlgGXCHI_10valknut_rs9detectors12names_simple5testss_27test_type_category_variants
FNDA:1,_RNvNtNtNtCs64AwlgGXCHI_10valknut_rs9detectors12names_simple5testss_28test_check_semantic_mismatch
FNDA:1,_RNvNtNtNtCs64AwlgGXCHI_10valknut_rs9detectors12names_simple5testss_28test_generate_name_proposals
FNDA:1,_RNvNtNtNtCs64AwlgGXCHI_10valknut_rs9detectors12names_simple5testss_29test_analyze_file_integration
FNDA:1,_RNvNtNtNtCs64AwlgGXCHI_10valknut_rs9detectors12names_simple5testss_31test_execution_pattern_variants
FNDA:1,_RNvNtNtNtCs64AwlgGXCHI_10valknut_rs9detectors12names_simple5testss_31test_extract_behavior_signature
FNDA:1,_RNvNtNtNtCs64AwlgGXCHI_10valknut_rs9detectors12names_simple5testss_34test_simple_name_analyzer_creation
FNDA:1,_RNvNtNtNtCs64AwlgGXCHI_10valknut_rs9detectors12names_simple5testss_36test_extract_function_from_line_rust
FNDA:1,_RNvNtNtNtCs64AwlgGXCHI_10valknut_rs9detectors12names_simple5testss_38test_extract_function_from_line_python
FNDA:1,_RNCNvMs_NtNtCs64AwlgGXCHI_10valknut_rs9detectors12names_simpleNtB6_18SimpleNameAnalyzer12analyze_file0Ba_
FNDA:1,_RNCNvMs_NtNtCs64AwlgGXCHI_10valknut_rs9detectors12names_simpleNtB6_18SimpleNameAnalyzer13analyze_files0Ba_
FNDA:7,_RNCNvMs_NtNtCs64AwlgGXCHI_10valknut_rs9detectors12names_simpleNtB6_18SimpleNameAnalyzer15detect_language0Ba_
FNDA:1,_RNvMs_NtNtCs64AwlgGXCHI_10valknut_rs9detectors12names_simpleNtB4_18SimpleNameAnalyzer12analyze_file
FNDA:1,_RNvMs_NtNtCs64AwlgGXCHI_10valknut_rs9detectors12names_simpleNtB4_18SimpleNameAnalyzer13analyze_files
FNDA:7,_RNvMs_NtNtCs64AwlgGXCHI_10valknut_rs9detectors12names_simpleNtB4_18SimpleNameAnalyzer15detect_language
FNDA:3,_RNvMs_NtNtCs64AwlgGXCHI_10valknut_rs9detectors12names_simpleNtB4_18SimpleNameAnalyzer22calculate_impact_score
FNDA:2,_RNvMs_NtNtCs64AwlgGXCHI_10valknut_rs9detectors12names_simpleNtB4_18SimpleNameAnalyzer23check_semantic_mismatch
FNDA:2,_RNvMs_NtNtCs64AwlgGXCHI_10valknut_rs9detectors12names_simpleNtB4_18SimpleNameAnalyzer23generate_name_proposals
FNDA:1,_RNvMs_NtNtCs64AwlgGXCHI_10valknut_rs9detectors12names_simpleNtB4_18SimpleNameAnalyzer24extract_functions_simple
FNDA:2,_RNvMs_NtNtCs64AwlgGXCHI_10valknut_rs9detectors12names_simpleNtB4_18SimpleNameAnalyzer26extract_behavior_signature
FNDA:11,_RNvMs_NtNtCs64AwlgGXCHI_10valknut_rs9detectors12names_simpleNtB4_18SimpleNameAnalyzer26extract_function_from_line
FNDA:11,_RNvMs_NtNtCs64AwlgGXCHI_10valknut_rs9detectors12names_simpleNtB4_18SimpleNameAnalyzer3new
FNDA:8,_RNvMs_NtNtCs64AwlgGXCHI_10valknut_rs9detectors12names_simpleNtB4_18SimpleNameAnalyzer7default
FNDA:12,_RNvXNtNtCs64AwlgGXCHI_10valknut_rs9detectors12names_simpleNtB2_11NamesConfigNtNtCs66KPHxksi63_4core7default7Default7default
FNF:33
FNH:33
DA:36,12
DA:37,12
DA:38,12
DA:39,12
DA:40,12
DA:41,12
DA:42,12
DA:43,12
DA:44,12
DA:45,12
DA:47,12
DA:48,12
DA:49,12
DA:50,12
DA:51,12
DA:52,12
DA:53,12
DA:54,12
DA:55,12
DA:56,12
DA:57,12
DA:58,12
DA:59,12
DA:173,11
DA:174,11
DA:175,11
DA:178,8
DA:179,8
DA:180,8
DA:183,1
DA:184,1
DA:185,1
DA:186,0
DA:188,0
DA:189,0
DA:191,0
DA:192,0
DA:193,0
DA:194,0
DA:198,0
DA:199,0
DA:200,1
DA:203,1
DA:204,1
DA:206,1
DA:209,1
DA:210,1
DA:211,1
DA:213,2
DA:215,1
DA:216,1
DA:219,1
DA:220,1
DA:223,1
DA:224,0
DA:225,0
DA:226,1
DA:229,1
DA:232,1
DA:233,1
DA:236,1
DA:237,0
DA:238,0
DA:239,1
DA:241,1
DA:242,1
DA:243,1
DA:244,1
DA:245,1
DA:246,1
DA:247,1
DA:248,1
DA:249,1
DA:250,1
DA:253,1
DA:254,1
DA:257,1
DA:258,1
DA:259,1
DA:261,1
DA:263,6
DA:264,6
DA:265,1
DA:266,5
DA:269,1
DA:270,1
DA:273,11
DA:274,11
DA:276,11
DA:277,11
DA:278,8
DA:280,3
DA:281,3
DA:282,3
DA:283,3
DA:286,5
DA:289,3
DA:290,0
DA:292,0
DA:293,0
DA:294,0
DA:295,0
DA:297,0
DA:299,0
DA:300,0
DA:301,0
DA:302,0
DA:305,0
DA:308,3
DA:309,3
DA:311,3
DA:312,3
DA:313,3
DA:314,3
DA:317,0
DA:320,0
DA:322,11
DA:325,2
DA:326,2
DA:329,2
DA:330,2
DA:331,2
DA:332,2
DA:333,2
DA:334,2
DA:335,2
DA:336,2
DA:337,2
DA:338,2
DA:339,1
DA:340,1
DA:341,1
DA:342,1
DA:346,2
DA:347,0
DA:349,2
DA:353,2
DA:354,2
DA:355,2
DA:356,2
DA:357,0
DA:358,2
DA:359,0
DA:361,2
DA:366,2
DA:367,1
DA:369,1
DA:372,2
DA:373,2
DA:374,2
DA:375,2
DA:376,2
DA:377,2
DA:378,2
DA:381,2
DA:382,2
DA:383,2
DA:386,2
DA:387,2
DA:388,2
DA:389,2
DA:390,2
DA:391,2
DA:392,2
DA:393,0
DA:396,2
DA:397,0
DA:398,0
DA:399,0
DA:400,0
DA:401,0
DA:402,2
DA:405,2
DA:406,0
DA:407,0
DA:408,0
DA:409,0
DA:410,2
DA:413,2
DA:415,0
DA:416,0
DA:417,0
DA:418,0
DA:419,0
DA:420,0
DA:423,2
DA:424,0
DA:425,0
DA:426,0
DA:427,0
DA:428,2
DA:430,0
DA:434,2
DA:437,2
DA:440,2
DA:442,2
DA:443,2
DA:444,2
DA:445,2
DA:446,2
DA:447,2
DA:448,2
DA:451,2
DA:452,2
DA:455,2
DA:456,1
DA:457,0
DA:459,1
DA:461,1
DA:462,0
DA:463,0
DA:465,0
DA:467,1
DA:468,0
DA:469,1
DA:470,0
DA:471,1
DA:472,0
DA:474,1
DA:478,2
DA:479,2
DA:482,2
DA:483,2
DA:484,2
DA:485,2
DA:486,2
DA:487,2
DA:490,2
DA:491,1
DA:492,1
DA:493,1
DA:494,1
DA:495,1
DA:496,1
DA:499,2
DA:500,1
DA:501,1
DA:502,1
DA:503,1
DA:504,1
DA:505,1
DA:507,2
DA:508,2
DA:511,3
DA:513,3
DA:516,3
DA:518,3
DA:519,3
DA:522,7
DA:523,7
DA:524,7
DA:525,5
DA:526,4
DA:527,3
DA:528,2
DA:529,1
DA:530,7
DA:531,7
DA:551,1
DA:552,1
DA:553,1
DA:554,1
DA:555,1
DA:556,1
DA:557,1
DA:558,1
DA:559,1
DA:562,1
DA:563,1
DA:564,1
DA:566,1
DA:567,1
DA:568,1
DA:569,1
DA:570,1
DA:571,1
DA:572,1
DA:575,1
DA:576,1
DA:577,1
DA:578,1
DA:579,1
DA:580,1
DA:582,1
DA:583,1
DA:584,1
DA:586,1
DA:587,1
DA:588,1
DA:589,1
DA:592,1
DA:593,1
DA:595,1
DA:596,1
DA:597,1
DA:598,1
DA:599,1
DA:600,1
DA:601,1
DA:604,1
DA:605,1
DA:608,1
DA:609,1
DA:610,1
DA:611,1
DA:612,1
DA:613,1
DA:616,1
DA:617,1
DA:618,1
DA:619,1
DA:620,1
DA:621,1
DA:624,1
DA:625,1
DA:628,1
DA:629,1
DA:630,1
DA:631,1
DA:632,1
DA:635,1
DA:636,1
DA:637,1
DA:638,1
DA:639,1
DA:642,1
DA:643,1
DA:644,1
DA:645,1
DA:646,1
DA:647,1
DA:650,1
DA:651,1
DA:653,1
DA:654,1
DA:655,1
DA:656,1
DA:657,1
DA:658,1
DA:660,1
DA:661,1
DA:663,1
DA:664,1
DA:665,1
DA:666,1
DA:667,1
DA:668,1
DA:669,1
DA:672,1
DA:673,1
DA:675,1
DA:676,1
DA:677,1
DA:678,1
DA:679,1
DA:680,1
DA:681,1
DA:682,1
DA:683,1
DA:684,1
DA:685,1
DA:686,1
DA:687,1
DA:688,1
DA:689,1
DA:692,1
DA:693,1
DA:694,1
DA:695,1
DA:696,1
DA:699,1
DA:700,1
DA:702,1
DA:703,1
DA:704,1
DA:705,1
DA:706,1
DA:707,1
DA:708,1
DA:709,1
DA:710,1
DA:711,1
DA:712,1
DA:713,1
DA:714,1
DA:715,1
DA:716,1
DA:718,1
DA:719,1
DA:722,1
DA:723,1
DA:726,1
DA:727,1
DA:729,1
DA:730,1
DA:731,1
DA:732,1
DA:733,1
DA:734,1
DA:736,1
DA:737,1
DA:740,1
DA:742,1
DA:743,1
DA:744,1
DA:745,1
DA:746,1
DA:747,1
DA:749,1
DA:751,1
DA:752,1
DA:755,1
DA:756,1
DA:757,1
DA:760,1
DA:761,1
DA:762,1
DA:763,1
DA:764,1
DA:765,1
DA:766,1
DA:767,1
DA:769,1
DA:770,1
DA:771,1
DA:772,1
DA:773,1
DA:774,1
DA:775,1
DA:776,1
DA:779,1
DA:780,1
DA:781,1
DA:782,1
DA:783,1
DA:784,1
DA:787,1
DA:789,1
DA:790,1
DA:791,1
DA:792,1
DA:794,1
DA:795,1
DA:796,1
DA:797,1
DA:799,1
DA:800,1
DA:801,1
DA:802,1
DA:804,1
DA:805,1
DA:806,1
DA:807,1
DA:809,1
DA:810,1
DA:811,1
DA:812,1
DA:813,1
DA:816,1
DA:820,1
DA:821,1
DA:822,1
DA:823,1
DA:824,1
DA:827,1
DA:831,1
DA:832,1
DA:833,1
DA:834,1
BRF:0
BRH:0
LF:478
LH:421
end_of_record
SF:/home/nathan/Projects/valknut/src/detectors/refactoring.rs
FN:642,_RNCNCNvNtNtNtCs64AwlgGXCHI_10valknut_rs9detectors11refactoring5testss_29test_analyze_file_integration0s0_0Bb_
FN:641,_RNCNCNvNtNtNtCs64AwlgGXCHI_10valknut_rs9detectors11refactoring5testss_29test_analyze_file_integration0s_0Bb_
FN:441,_RNCNvNtNtNtCs64AwlgGXCHI_10valknut_rs9detectors11refactoring5testss_27test_analyze_files_disabled0B9_
FN:596,_RNCNvNtNtNtCs64AwlgGXCHI_10valknut_rs9detectors11refactoring5testss_29test_analyze_file_integration0B9_
FN:701,_RNCNvNtNtNtCs64AwlgGXCHI_10valknut_rs9detectors11refactoring5testss_30test_feature_extractor_extract0B9_
FN:481,_RNvNtNtNtCs64AwlgGXCHI_10valknut_rs9detectors11refactoring5testss_19test_is_class_start
FN:458,_RNvNtNtNtCs64AwlgGXCHI_10valknut_rs9detectors11refactoring5testss_20test_is_method_start
FN:574,_RNvNtNtNtCs64AwlgGXCHI_10valknut_rs9detectors11refactoring5testss_21test_detect_dead_code
FN:498,_RNvNtNtNtCs64AwlgGXCHI_10valknut_rs9detectors11refactoring5testss_24test_detect_long_methods
FN:554,_RNvNtNtNtCs64AwlgGXCHI_10valknut_rs9detectors11refactoring5testss_25test_detect_large_classes
FN:533,_RNvNtNtNtCs64AwlgGXCHI_10valknut_rs9detectors11refactoring5testss_26test_detect_duplicate_code
FN:441,_RNvNtNtNtCs64AwlgGXCHI_10valknut_rs9detectors11refactoring5testss_27test_analyze_files_disabled
FN:596,_RNvNtNtNtCs64AwlgGXCHI_10valknut_rs9detectors11refactoring5testss_29test_analyze_file_integration
FN:701,_RNvNtNtNtCs64AwlgGXCHI_10valknut_rs9detectors11refactoring5testss_30test_feature_extractor_extract
FN:682,_RNvNtNtNtCs64AwlgGXCHI_10valknut_rs9detectors11refactoring5testss_30test_refactoring_type_variants
FN:420,_RNvNtNtNtCs64AwlgGXCHI_10valknut_rs9detectors11refactoring5testss_31test_refactoring_config_default
FN:646,_RNvNtNtNtCs64AwlgGXCHI_10valknut_rs9detectors11refactoring5testss_32test_calculate_refactoring_score
FN:518,_RNvNtNtNtCs64AwlgGXCHI_10valknut_rs9detectors11refactoring5testss_32test_detect_complex_conditionals
FN:427,_RNvNtNtNtCs64AwlgGXCHI_10valknut_rs9detectors11refactoring5testss_34test_refactoring_analyzer_creation
FN:694,_RNvNtNtNtCs64AwlgGXCHI_10valknut_rs9detectors11refactoring5testss_37test_feature_extractor_implementation
FN:127,_RNCNCNvMs_NtNtCs64AwlgGXCHI_10valknut_rs9detectors11refactoringNtB8_19RefactoringAnalyzer12analyze_file00Bc_
FN:130,_RNCNCNvMs_NtNtCs64AwlgGXCHI_10valknut_rs9detectors11refactoringNtB8_19RefactoringAnalyzer12analyze_file0s_0Bc_
FN:112,_RNCNvMs_NtNtCs64AwlgGXCHI_10valknut_rs9detectors11refactoringNtB6_19RefactoringAnalyzer12analyze_file0Ba_
FN:88,_RNCNvMs_NtNtCs64AwlgGXCHI_10valknut_rs9detectors11refactoringNtB6_19RefactoringAnalyzer13analyze_files0Ba_
FN:112,_RNvMs_NtNtCs64AwlgGXCHI_10valknut_rs9detectors11refactoringNtB4_19RefactoringAnalyzer12analyze_file
FN:88,_RNvMs_NtNtCs64AwlgGXCHI_10valknut_rs9detectors11refactoringNtB4_19RefactoringAnalyzer13analyze_files
FN:375,_RNvMs_NtNtCs64AwlgGXCHI_10valknut_rs9detectors11refactoringNtB4_19RefactoringAnalyzer14is_class_start
FN:360,_RNvMs_NtNtCs64AwlgGXCHI_10valknut_rs9detectors11refactoringNtB4_19RefactoringAnalyzer15is_method_start
FN:333,_RNvMs_NtNtCs64AwlgGXCHI_10valknut_rs9detectors11refactoringNtB4_19RefactoringAnalyzer16detect_dead_code
FN:143,_RNvMs_NtNtCs64AwlgGXCHI_10valknut_rs9detectors11refactoringNtB4_19RefactoringAnalyzer19detect_long_methods
FN:288,_RNvMs_NtNtCs64AwlgGXCHI_10valknut_rs9detectors11refactoringNtB4_19RefactoringAnalyzer20detect_large_classes
FN:224,_RNvMs_NtNtCs64AwlgGXCHI_10valknut_rs9detectors11refactoringNtB4_19RefactoringAnalyzer21detect_duplicate_code
FN:389,_RNvMs_NtNtCs64AwlgGXCHI_10valknut_rs9detectors11refactoringNtB4_19RefactoringAnalyzer27calculate_refactoring_score
FN:191,_RNvMs_NtNtCs64AwlgGXCHI_10valknut_rs9detectors11refactoringNtB4_19RefactoringAnalyzer27detect_complex_conditionals
FN:78,_RNvMs_NtNtCs64AwlgGXCHI_10valknut_rs9detectors11refactoringNtB4_19RefactoringAnalyzer3new
FN:83,_RNvMs_NtNtCs64AwlgGXCHI_10valknut_rs9detectors11refactoringNtB4_19RefactoringAnalyzer7default
FN:248,_RNvNvMs_NtNtCs64AwlgGXCHI_10valknut_rs9detectors11refactoringNtB6_19RefactoringAnalyzer21detect_duplicate_code22extract_string_literal
FN:23,_RNvXNtNtCs64AwlgGXCHI_10valknut_rs9detectors11refactoringNtB2_17RefactoringConfigNtNtCs66KPHxksi63_4core7default7Default7default
FN:406,_RNvXsa_NtNtCs64AwlgGXCHI_10valknut_rs9detectors11refactoringNtB5_20RefactoringExtractorNtNtNtB9_4core10featureset16FeatureExtractor4name
FN:408,_RNvXsa_NtNtCs64AwlgGXCHI_10valknut_rs9detectors11refactoringNtB5_20RefactoringExtractorNtNtNtB9_4core10featureset16FeatureExtractor7extract
FN:407,_RNvXsa_NtNtCs64AwlgGXCHI_10valknut_rs9detectors11refactoringNtB5_20RefactoringExtractorNtNtNtB9_4core10featureset16FeatureExtractor8features
FNDA:3,_RNCNCNvNtNtNtCs64AwlgGXCHI_10valknut_rs9detectors11refactoring5testss_29test_analyze_file_integration0s0_0Bb_
FNDA:2,_RNCNCNvNtNtNtCs64AwlgGXCHI_10valknut_rs9detectors11refactoring5testss_29test_analyze_file_integration0s_0Bb_
FNDA:1,_RNCNvNtNtNtCs64AwlgGXCHI_10valknut_rs9detectors11refactoring5testss_27test_analyze_files_disabled0B9_
FNDA:1,_RNCNvNtNtNtCs64AwlgGXCHI_10valknut_rs9detectors11refactoring5testss_29test_analyze_file_integration0B9_
FNDA:1,_RNCNvNtNtNtCs64AwlgGXCHI_10valknut_rs9detectors11refactoring5testss_30test_feature_extractor_extract0B9_
FNDA:1,_RNvNtNtNtCs64AwlgGXCHI_10valknut_rs9detectors11refactoring5testss_19test_is_class_start
FNDA:1,_RNvNtNtNtCs64AwlgGXCHI_10valknut_rs9detectors11refactoring5testss_20test_is_method_start
FNDA:1,_RNvNtNtNtCs64AwlgGXCHI_10valknut_rs9detectors11refactoring5testss_21test_detect_dead_code
FNDA:1,_RNvNtNtNtCs64AwlgGXCHI_10valknut_rs9detectors11refactoring5testss_24test_detect_long_methods
FNDA:1,_RNvNtNtNtCs64AwlgGXCHI_10valknut_rs9detectors11refactoring5testss_25test_detect_large_classes
FNDA:1,_RNvNtNtNtCs64AwlgGXCHI_10valknut_rs9detectors11refactoring5testss_26test_detect_duplicate_code
FNDA:1,_RNvNtNtNtCs64AwlgGXCHI_10valknut_rs9detectors11refactoring5testss_27test_analyze_files_disabled
FNDA:1,_RNvNtNtNtCs64AwlgGXCHI_10valknut_rs9detectors11refactoring5testss_29test_analyze_file_integration
FNDA:1,_RNvNtNtNtCs64AwlgGXCHI_10valknut_rs9detectors11refactoring5testss_30test_feature_extractor_extract
FNDA:1,_RNvNtNtNtCs64AwlgGXCHI_10valknut_rs9detectors11refactoring5testss_30test_refactoring_type_variants
FNDA:1,_RNvNtNtNtCs64AwlgGXCHI_10valknut_rs9detectors11refactoring5testss_31test_refactoring_config_default
FNDA:1,_RNvNtNtNtCs64AwlgGXCHI_10valknut_rs9detectors11refactoring5testss_32test_calculate_refactoring_score
FNDA:1,_RNvNtNtNtCs64AwlgGXCHI_10valknut_rs9detectors11refactoring5testss_32test_detect_complex_conditionals
FNDA:1,_RNvNtNtNtCs64AwlgGXCHI_10valknut_rs9detectors11refactoring5testss_34test_refactoring_analyzer_creation
FNDA:1,_RNvNtNtNtCs64AwlgGXCHI_10valknut_rs9detectors11refactoring5testss_37test_feature_extractor_implementation
FNDA:3,_RNCNCNvMs_NtNtCs64AwlgGXCHI_10valknut_rs9detectors11refactoringNtB8_19RefactoringAnalyzer12analyze_file00Bc_
FNDA:3,_RNCNCNvMs_NtNtCs64AwlgGXCHI_10valknut_rs9detectors11refactoringNtB8_19RefactoringAnalyzer12analyze_file0s_0Bc_
FNDA:4,_RNCNvMs_NtNtCs64AwlgGXCHI_10valknut_rs9detectors11refactoringNtB6_19RefactoringAnalyzer12analyze_file0Ba_
FNDA:5,_RNCNvMs_NtNtCs64AwlgGXCHI_10valknut_rs9detectors11refactoringNtB6_19RefactoringAnalyzer13analyze_files0Ba_
FNDA:4,_RNvMs_NtNtCs64AwlgGXCHI_10valknut_rs9detectors11refactoringNtB4_19RefactoringAnalyzer12analyze_file
FNDA:5,_RNvMs_NtNtCs64AwlgGXCHI_10valknut_rs9detectors11refactoringNtB4_19RefactoringAnalyzer13analyze_files
FNDA:135,_RNvMs_NtNtCs64AwlgGXCHI_10valknut_rs9detectors11refactoringNtB4_19RefactoringAnalyzer14is_class_start
FNDA:67,_RNvMs_NtNtCs64AwlgGXCHI_10valknut_rs9detectors11refactoringNtB4_19RefactoringAnalyzer15is_method_start
FNDA:5,_RNvMs_NtNtCs64AwlgGXCHI_10valknut_rs9detectors11refactoringNtB4_19RefactoringAnalyzer16detect_dead_code
FNDA:5,_RNvMs_NtNtCs64AwlgGXCHI_10valknut_rs9detectors11refactoringNtB4_19RefactoringAnalyzer19detect_long_methods
FNDA:5,_RNvMs_NtNtCs64AwlgGXCHI_10valknut_rs9detectors11refactoringNtB4_19RefactoringAnalyzer20detect_large_classes
FNDA:5,_RNvMs_NtNtCs64AwlgGXCHI_10valknut_rs9detectors11refactoringNtB4_19RefactoringAnalyzer21detect_duplicate_code
FNDA:6,_RNvMs_NtNtCs64AwlgGXCHI_10valknut_rs9detectors11refactoringNtB4_19RefactoringAnalyzer27calculate_refactoring_score
FNDA:5,_RNvMs_NtNtCs64AwlgGXCHI_10valknut_rs9detectors11refactoringNtB4_19RefactoringAnalyzer27detect_complex_conditionals
FNDA:35,_RNvMs_NtNtCs64AwlgGXCHI_10valknut_rs9detectors11refactoringNtB4_19RefactoringAnalyzer3new
FNDA:9,_RNvMs_NtNtCs64AwlgGXCHI_10valknut_rs9detectors11refactoringNtB4_19RefactoringAnalyzer7default
FNDA:17,_RNvNvMs_NtNtCs64AwlgGXCHI_10valknut_rs9detectors11refactoringNtB6_19RefactoringAnalyzer21detect_duplicate_code22extract_string_literal
FNDA:33,_RNvXNtNtCs64AwlgGXCHI_10valknut_rs9detectors11refactoringNtB2_17RefactoringConfigNtNtCs66KPHxksi63_4core7default7Default7default
FNDA:1,_RNvXsa_NtNtCs64AwlgGXCHI_10valknut_rs9detectors11refactoringNtB5_20RefactoringExtractorNtNtNtB9_4core10featureset16FeatureExtractor4name
FNDA:1,_RNvXsa_NtNtCs64AwlgGXCHI_10valknut_rs9detectors11refactoringNtB5_20RefactoringExtractorNtNtNtB9_4core10featureset16FeatureExtractor7extract
FNDA:1,_RNvXsa_NtNtCs64AwlgGXCHI_10valknut_rs9detectors11refactoringNtB5_20RefactoringExtractorNtNtNtB9_4core10featureset16FeatureExtractor8features
FNF:41
FNH:41
DA:23,33
DA:24,33
DA:25,33
DA:26,33
DA:27,33
DA:28,33
DA:78,35
DA:79,35
DA:80,35
DA:83,9
DA:84,9
DA:85,9
DA:88,5
DA:89,5
DA:90,1
DA:91,4
DA:93,4
DA:94,4
DA:96,7
DA:97,3
DA:98,3
DA:99,3
DA:100,0
DA:101,3
DA:103,0
DA:107,4
DA:108,4
DA:109,5
DA:112,4
DA:113,4
DA:115,4
DA:117,4
DA:120,4
DA:121,4
DA:122,4
DA:123,4
DA:124,4
DA:127,4
DA:130,4
DA:133,4
DA:135,4
DA:136,4
DA:137,4
DA:138,4
DA:139,4
DA:140,4
DA:143,5
DA:144,5
DA:145,5
DA:147,5
DA:148,5
DA:150,59
DA:151,59
DA:154,59
DA:155,4
DA:156,4
DA:157,55
DA:160,59
DA:161,59
DA:164,59
DA:165,3
DA:166,3
DA:167,3
DA:169,3
DA:170,1
DA:171,1
DA:172,1
DA:173,1
DA:174,1
DA:175,1
DA:176,1
DA:177,1
DA:178,1
DA:179,1
DA:180,1
DA:181,2
DA:183,3
DA:184,56
DA:187,5
DA:188,5
DA:191,5
DA:192,5
DA:193,5
DA:195,24
DA:196,24
DA:199,24
DA:200,2
DA:201,2
DA:202,2
DA:204,2
DA:205,2
DA:206,2
DA:207,2
DA:208,2
DA:209,2
DA:210,2
DA:211,2
DA:212,2
DA:213,2
DA:214,2
DA:215,2
DA:216,2
DA:217,22
DA:220,5
DA:221,5
DA:224,5
DA:225,5
DA:226,5
DA:229,5
DA:231,29
DA:232,29
DA:233,29
DA:235,17
DA:236,6
DA:237,3
DA:238,3
DA:239,11
DA:240,17
DA:241,17
DA:242,3
DA:243,14
DA:244,12
DA:248,17
DA:250,17
DA:251,6
DA:252,6
DA:253,6
DA:254,0
DA:255,0
DA:256,11
DA:257,11
DA:258,0
DA:259,0
DA:260,0
DA:261,0
DA:262,0
DA:263,11
DA:264,11
DA:265,17
DA:267,21
DA:268,16
DA:269,2
DA:270,2
DA:271,2
DA:272,2
DA:273,2
DA:274,2
DA:275,2
DA:276,2
DA:277,2
DA:278,2
DA:279,2
DA:280,2
DA:281,14
DA:284,5
DA:285,5
DA:288,5
DA:289,5
DA:290,5
DA:292,5
DA:293,5
DA:295,129
DA:296,129
DA:298,129
DA:299,2
DA:300,2
DA:301,127
DA:303,129
DA:304,129
DA:306,129
DA:307,2
DA:308,2
DA:309,2
DA:311,2
DA:312,1
DA:313,1
DA:314,1
DA:315,1
DA:316,1
DA:317,1
DA:318,1
DA:319,1
DA:320,1
DA:321,1
DA:322,1
DA:323,1
DA:325,2
DA:326,127
DA:329,5
DA:330,5
DA:333,5
DA:334,5
DA:335,5
DA:337,29
DA:338,29
DA:341,29
DA:343,7
DA:344,4
DA:345,4
DA:346,4
DA:347,4
DA:348,4
DA:349,4
DA:350,4
DA:351,4
DA:352,4
DA:353,22
DA:356,5
DA:357,5
DA:360,67
DA:361,67
DA:364,67
DA:365,5
DA:366,62
DA:368,62
DA:369,59
DA:370,57
DA:371,54
DA:372,67
DA:375,135
DA:376,135
DA:379,135
DA:380,4
DA:381,131
DA:383,131
DA:384,127
DA:385,126
DA:386,135
DA:389,6
DA:390,6
DA:391,6
DA:394,6
DA:397,6
DA:398,6
DA:406,1
DA:407,1
DA:408,1
DA:410,1
DA:420,1
DA:421,1
DA:422,1
DA:423,1
DA:424,1
DA:427,1
DA:428,1
DA:429,1
DA:431,1
DA:432,1
DA:433,1
DA:434,1
DA:435,1
DA:436,1
DA:437,1
DA:438,1
DA:441,1
DA:442,1
DA:443,1
DA:444,1
DA:445,1
DA:446,1
DA:448,1
DA:449,1
DA:450,1
DA:452,1
DA:453,1
DA:454,1
DA:455,1
DA:458,1
DA:459,1
DA:462,1
DA:463,1
DA:466,1
DA:469,1
DA:470,1
DA:473,1
DA:476,1
DA:477,1
DA:478,1
DA:481,1
DA:482,1
DA:485,1
DA:486,1
DA:489,1
DA:490,1
DA:493,1
DA:494,1
DA:495,1
DA:498,1
DA:499,1
DA:502,1
DA:503,36
DA:504,35
DA:505,35
DA:506,1
DA:508,1
DA:509,1
DA:511,1
DA:512,1
DA:513,1
DA:514,1
DA:515,1
DA:518,1
DA:519,1
DA:521,1
DA:523,1
DA:524,1
DA:526,1
DA:527,1
DA:528,1
DA:529,1
DA:530,1
DA:533,1
DA:534,1
DA:536,1
DA:537,1
DA:538,1
DA:539,1
DA:540,1
DA:541,1
DA:542,1
DA:544,1
DA:545,1
DA:547,1
DA:548,1
DA:549,1
DA:550,1
DA:551,1
DA:554,1
DA:555,1
DA:558,1
DA:559,106
DA:560,105
DA:561,105
DA:562,1
DA:564,1
DA:565,1
DA:567,1
DA:568,1
DA:569,1
DA:570,1
DA:571,1
DA:574,1
DA:575,1
DA:577,1
DA:578,1
DA:579,1
DA:580,1
DA:581,1
DA:582,1
DA:583,1
DA:585,1
DA:586,1
DA:588,1
DA:589,1
DA:590,1
DA:591,1
DA:592,1
DA:593,1
DA:596,1
DA:597,1
DA:598,1
DA:601,1
DA:602,1
DA:603,1
DA:604,1
DA:605,1
DA:606,1
DA:607,1
DA:608,1
DA:609,1
DA:610,1
DA:611,1
DA:612,1
DA:613,1
DA:614,1
DA:615,1
DA:616,1
DA:617,1
DA:618,1
DA:619,1
DA:620,1
DA:621,1
DA:623,1
DA:624,1
DA:625,1
DA:626,1
DA:627,1
DA:628,1
DA:630,1
DA:631,1
DA:634,1
DA:635,1
DA:636,1
DA:639,1
DA:640,1
DA:641,2
DA:642,3
DA:643,1
DA:646,1
DA:647,1
DA:649,1
DA:650,1
DA:651,1
DA:652,1
DA:653,1
DA:654,1
DA:655,1
DA:656,1
DA:657,1
DA:658,1
DA:659,1
DA:660,1
DA:661,1
DA:662,1
DA:663,1
DA:664,1
DA:665,1
DA:668,1
DA:669,1
DA:673,1
DA:676,1
DA:677,1
DA:678,1
DA:679,1
DA:682,1
DA:684,1
DA:685,1
DA:686,1
DA:687,1
DA:688,1
DA:689,1
DA:690,1
DA:691,1
DA:694,1
DA:695,1
DA:696,1
DA:697,1
DA:698,1
DA:701,1
DA:702,1
DA:703,1
DA:704,1
DA:705,1
DA:706,1
DA:707,1
DA:709,1
DA:710,1
DA:711,1
DA:714,1
DA:715,1
DA:716,1
BRF:0
BRH:0
LF:463
LH:454
end_of_record
SF:/home/nathan/Projects/valknut/src/detectors/structure/config.rs
FN:72,_RNvXNtNtNtCs64AwlgGXCHI_10valknut_rs9detectors9structure6configNtB2_15StructureConfigNtNtCs66KPHxksi63_4core7default7Default7default
FNDA:46,_RNvXNtNtNtCs64AwlgGXCHI_10valknut_rs9detectors9structure6configNtB2_15StructureConfigNtNtCs66KPHxksi63_4core7default7Default7default
FNF:1
FNH:1
DA:72,46
DA:73,46
DA:74,46
DA:75,46
DA:76,46
DA:77,46
DA:78,46
DA:79,46
DA:80,46
DA:81,46
DA:82,46
DA:83,46
DA:84,46
DA:85,46
DA:86,46
DA:87,46
DA:88,46
DA:89,46
DA:90,46
DA:91,46
DA:92,46
DA:93,46
DA:94,46
DA:95,46
DA:96,46
DA:97,46
DA:98,46
DA:99,46
DA:100,46
DA:101,46
DA:102,46
DA:103,46
DA:104,46
DA:105,46
BRF:0
BRH:0
LF:34
LH:34
end_of_record
SF:/home/nathan/Projects/valknut/src/detectors/structure/directory.rs
FN:152,_RNCNCNvMNtNtNtCs64AwlgGXCHI_10valknut_rs9detectors9structure9directoryNtB6_17DirectoryAnalyzer26calculate_gini_coefficient00Bc_
FN:896,_RNCNvMNtNtNtCs64AwlgGXCHI_10valknut_rs9detectors9structure9directoryNtB4_17DirectoryAnalyzer15extract_imports0Ba_
FN:174,_RNCNvMNtNtNtCs64AwlgGXCHI_10valknut_rs9detectors9structure9directoryNtB4_17DirectoryAnalyzer17calculate_entropy0Ba_
FN:185,_RNCNvMNtNtNtCs64AwlgGXCHI_10valknut_rs9detectors9structure9directoryNtB4_17DirectoryAnalyzer17calculate_entropys0_0Ba_
FN:186,_RNCNvMNtNtNtCs64AwlgGXCHI_10valknut_rs9detectors9structure9directoryNtB4_17DirectoryAnalyzer17calculate_entropys1_0Ba_
FN:175,_RNCNvMNtNtNtCs64AwlgGXCHI_10valknut_rs9detectors9structure9directoryNtB4_17DirectoryAnalyzer17calculate_entropys_0Ba_
FN:120,_RNCNvMNtNtNtCs64AwlgGXCHI_10valknut_rs9detectors9structure9directoryNtB4_17DirectoryAnalyzer19count_lines_of_code0Ba_
FN:613,_RNCNvMNtNtNtCs64AwlgGXCHI_10valknut_rs9detectors9structure9directoryNtB4_17DirectoryAnalyzer19find_best_node_swap0Ba_
FN:863,_RNCNvMNtNtNtCs64AwlgGXCHI_10valknut_rs9detectors9structure9directoryNtB4_17DirectoryAnalyzer19generate_file_moves0Ba_
FN:1071,_RNCNvMNtNtNtCs64AwlgGXCHI_10valknut_rs9detectors9structure9directoryNtB4_17DirectoryAnalyzer20discover_directories0Ba_
FN:1022,_RNCNvMNtNtNtCs64AwlgGXCHI_10valknut_rs9detectors9structure9directoryNtB4_17DirectoryAnalyzer20extract_rust_imports0Ba_
FN:1096,_RNCNvMNtNtNtCs64AwlgGXCHI_10valknut_rs9detectors9structure9directoryNtB4_17DirectoryAnalyzer21should_skip_directory0Ba_
FN:260,_RNCNvMNtNtNtCs64AwlgGXCHI_10valknut_rs9detectors9structure9directoryNtB4_17DirectoryAnalyzer22build_dependency_graph0Ba_
FN:938,_RNCNvMNtNtNtCs64AwlgGXCHI_10valknut_rs9detectors9structure9directoryNtB4_17DirectoryAnalyzer22extract_python_imports0Ba_
FN:99,_RNCNvMNtNtNtCs64AwlgGXCHI_10valknut_rs9detectors9structure9directoryNtB4_17DirectoryAnalyzer22gather_directory_stats0Ba_
FN:692,_RNCNvMNtNtNtCs64AwlgGXCHI_10valknut_rs9detectors9structure9directoryNtB4_17DirectoryAnalyzer23generate_partition_name0Ba_
FN:705,_RNCNvMNtNtNtCs64AwlgGXCHI_10valknut_rs9detectors9structure9directoryNtB4_17DirectoryAnalyzer23generate_partition_names0_0Ba_
FN:714,_RNCNvMNtNtNtCs64AwlgGXCHI_10valknut_rs9detectors9structure9directoryNtB4_17DirectoryAnalyzer23generate_partition_names2_0Ba_
FN:696,_RNCNvMNtNtNtCs64AwlgGXCHI_10valknut_rs9detectors9structure9directoryNtB4_17DirectoryAnalyzer23generate_partition_names_0Ba_
FN:554,_RNCNvMNtNtNtCs64AwlgGXCHI_10valknut_rs9detectors9structure9directoryNtB4_17DirectoryAnalyzer24kernighan_lin_refinement0Ba_
FN:557,_RNCNvMNtNtNtCs64AwlgGXCHI_10valknut_rs9detectors9structure9directoryNtB4_17DirectoryAnalyzer24kernighan_lin_refinements_0Ba_
FN:501,_RNCNvMNtNtNtCs64AwlgGXCHI_10valknut_rs9detectors9structure9directoryNtB4_17DirectoryAnalyzer24refine_partition_with_kl0Ba_
FN:511,_RNCNvMNtNtNtCs64AwlgGXCHI_10valknut_rs9detectors9structure9directoryNtB4_17DirectoryAnalyzer24refine_partition_with_kls_0Ba_
FN:150,_RNCNvMNtNtNtCs64AwlgGXCHI_10valknut_rs9detectors9structure9directoryNtB4_17DirectoryAnalyzer26calculate_gini_coefficient0Ba_
FN:979,_RNCNvMNtNtNtCs64AwlgGXCHI_10valknut_rs9detectors9structure9directoryNtB4_17DirectoryAnalyzer26extract_javascript_imports0Ba_
FN:471,_RNCNvMNtNtNtCs64AwlgGXCHI_10valknut_rs9detectors9structure9directoryNtB4_17DirectoryAnalyzer27label_propagation_partition0Ba_
FN:834,_RNCNvMNtNtNtCs64AwlgGXCHI_10valknut_rs9detectors9structure9directoryNtB4_17DirectoryAnalyzer31calculate_reorganization_effort0Ba_
FN:1115,_RNvNtNtNtNtCs64AwlgGXCHI_10valknut_rs9detectors9structure9directory5tests18create_test_config
FN:1150,_RNvNtNtNtNtCs64AwlgGXCHI_10valknut_rs9detectors9structure9directory5tests20setup_test_directory
FN:1178,_RNvNtNtNtNtCs64AwlgGXCHI_10valknut_rs9detectors9structure9directory5testss_17test_is_code_file
FN:1496,_RNvNtNtNtNtCs64AwlgGXCHI_10valknut_rs9detectors9structure9directory5testss_21test_random_partition
FN:1466,_RNvNtNtNtNtCs64AwlgGXCHI_10valknut_rs9detectors9structure9directory5testss_23test_calculate_cut_size
FN:1191,_RNvNtNtNtNtCs64AwlgGXCHI_10valknut_rs9detectors9structure9directory5testss_24test_count_lines_of_code
FN:1580,_RNvNtNtNtNtCs64AwlgGXCHI_10valknut_rs9detectors9structure9directory5testss_24test_generate_file_moves
FN:1517,_RNvNtNtNtNtCs64AwlgGXCHI_10valknut_rs9detectors9structure9directory5testss_25test_discover_directories
FN:1859,_RNvNtNtNtNtCs64AwlgGXCHI_10valknut_rs9detectors9structure9directory5testss_26test_brute_force_partition
FN:1349,_RNvNtNtNtNtCs64AwlgGXCHI_10valknut_rs9detectors9structure9directory5testss_26test_should_skip_directory
FN:1169,_RNvNtNtNtNtCs64AwlgGXCHI_10valknut_rs9detectors9structure9directory5testss_27test_directory_analyzer_new
FN:1217,_RNvNtNtNtNtCs64AwlgGXCHI_10valknut_rs9detectors9structure9directory5testss_27test_gather_directory_stats
FN:1269,_RNvNtNtNtNtCs64AwlgGXCHI_10valknut_rs9detectors9structure9directory5testss_28test_calculate_entropy_empty
FN:1880,_RNvNtNtNtNtCs64AwlgGXCHI_10valknut_rs9detectors9structure9directory5testss_29test_find_optimal_bipartition
FN:1819,_RNvNtNtNtNtCs64AwlgGXCHI_10valknut_rs9detectors9structure9directory5testss_30test_communities_to_partitions
FN:1767,_RNvNtNtNtNtCs64AwlgGXCHI_10valknut_rs9detectors9structure9directory5testss_30test_partition_directory_basic
FN:1416,_RNvNtNtNtNtCs64AwlgGXCHI_10valknut_rs9detectors9structure9directory5testss_31test_extract_rust_imports_basic
FN:1311,_RNvNtNtNtNtCs64AwlgGXCHI_10valknut_rs9detectors9structure9directory5testss_32test_calculate_directory_metrics
FN:1749,_RNvNtNtNtNtCs64AwlgGXCHI_10valknut_rs9detectors9structure9directory5testss_33test_build_dependency_graph_basic
FN:1691,_RNvNtNtNtNtCs64AwlgGXCHI_10valknut_rs9detectors9structure9directory5testss_33test_calculate_entropy_total_zero
FN:1951,_RNvNtNtNtNtCs64AwlgGXCHI_10valknut_rs9detectors9structure9directory5testss_33test_estimate_cross_edges_reduced
FN:1916,_RNvNtNtNtNtCs64AwlgGXCHI_10valknut_rs9detectors9structure9directory5testss_33test_extract_imports_by_extension
FN:1362,_RNvNtNtNtNtCs64AwlgGXCHI_10valknut_rs9detectors9structure9directory5testss_33test_extract_python_imports_basic
FN:1601,_RNvNtNtNtNtCs64AwlgGXCHI_10valknut_rs9detectors9structure9directory5testss_33test_resolve_import_to_local_file
FN:1782,_RNvNtNtNtNtCs64AwlgGXCHI_10valknut_rs9detectors9structure9directory5testss_34test_calculate_reorganization_gain
FN:1287,_RNvNtNtNtNtCs64AwlgGXCHI_10valknut_rs9detectors9structure9directory5testss_35test_calculate_entropy_equal_values
FN:1278,_RNvNtNtNtNtCs64AwlgGXCHI_10valknut_rs9detectors9structure9directory5testss_35test_calculate_entropy_single_value
FN:1556,_RNvNtNtNtNtCs64AwlgGXCHI_10valknut_rs9detectors9structure9directory5testss_36test_calculate_reorganization_effort
FN:1233,_RNvNtNtNtNtCs64AwlgGXCHI_10valknut_rs9detectors9structure9directory5testss_37test_calculate_gini_coefficient_empty
FN:1398,_RNvNtNtNtNtCs64AwlgGXCHI_10valknut_rs9detectors9structure9directory5testss_37test_extract_javascript_imports_basic
FN:1452,_RNvNtNtNtNtCs64AwlgGXCHI_10valknut_rs9detectors9structure9directory5testss_37test_generate_partition_name_fallback
FN:1848,_RNvNtNtNtNtCs64AwlgGXCHI_10valknut_rs9detectors9structure9directory5testss_38test_label_propagation_partition_empty
FN:1385,_RNvNtNtNtNtCs64AwlgGXCHI_10valknut_rs9detectors9structure9directory5testss_39test_extract_python_imports_star_import
FN:1331,_RNvNtNtNtNtCs64AwlgGXCHI_10valknut_rs9detectors9structure9directory5testss_40test_calculate_directory_metrics_caching
FN:1670,_RNvNtNtNtNtCs64AwlgGXCHI_10valknut_rs9detectors9structure9directory5testss_40test_calculate_gini_coefficient_sum_zero
FN:1296,_RNvNtNtNtNtCs64AwlgGXCHI_10valknut_rs9detectors9structure9directory5testss_40test_calculate_size_normalization_factor
FN:1679,_RNvNtNtNtNtCs64AwlgGXCHI_10valknut_rs9detectors9structure9directory5testss_43test_calculate_entropy_large_array_parallel
FN:1640,_RNvNtNtNtNtCs64AwlgGXCHI_10valknut_rs9detectors9structure9directory5testss_43test_resolve_import_relative_import_skipped
FN:1623,_RNvNtNtNtNtCs64AwlgGXCHI_10valknut_rs9detectors9structure9directory5testss_43test_resolve_import_to_local_file_not_found
FN:1251,_RNvNtNtNtNtCs64AwlgGXCHI_10valknut_rs9detectors9structure9directory5testss_44test_calculate_gini_coefficient_equal_values
FN:1242,_RNvNtNtNtNtCs64AwlgGXCHI_10valknut_rs9detectors9structure9directory5testss_44test_calculate_gini_coefficient_single_value
FN:1540,_RNvNtNtNtNtCs64AwlgGXCHI_10valknut_rs9detectors9structure9directory5testss_46test_analyze_directory_for_reorg_low_imbalance
FN:1260,_RNvNtNtNtNtCs64AwlgGXCHI_10valknut_rs9detectors9structure9directory5testss_46test_calculate_gini_coefficient_unequal_values
FN:1437,_RNvNtNtNtNtCs64AwlgGXCHI_10valknut_rs9detectors9structure9directory5testss_47test_generate_partition_name_with_common_tokens
FN:1700,_RNvNtNtNtNtCs64AwlgGXCHI_10valknut_rs9detectors9structure9directory5testss_49test_analyze_directory_for_reorg_meets_conditions
FN:1657,_RNvNtNtNtNtCs64AwlgGXCHI_10valknut_rs9detectors9structure9directory5testss_52test_calculate_gini_coefficient_large_array_parallel
FN:1734,_RNvNtNtNtNtCs64AwlgGXCHI_10valknut_rs9detectors9structure9directory5testss_56test_analyze_directory_for_reorg_small_directory_skipped
FN:1534,_RNCNCNvNtNtNtNtCs64AwlgGXCHI_10valknut_rs9detectors9structure9directory5testss_25test_discover_directories00Bd_
FN:1536,_RNCNCNvNtNtNtNtCs64AwlgGXCHI_10valknut_rs9detectors9structure9directory5testss_25test_discover_directories0s0_0Bd_
FN:1535,_RNCNCNvNtNtNtNtCs64AwlgGXCHI_10valknut_rs9detectors9structure9directory5testss_25test_discover_directories0s_0Bd_
FN:1502,_RNCNvNtNtNtNtCs64AwlgGXCHI_10valknut_rs9detectors9structure9directory5testss_21test_random_partition0Bb_
FN:1513,_RNCNvNtNtNtNtCs64AwlgGXCHI_10valknut_rs9detectors9structure9directory5testss_21test_random_partitions_0Bb_
FN:1517,_RNCNvNtNtNtNtCs64AwlgGXCHI_10valknut_rs9detectors9structure9directory5testss_25test_discover_directories0Bb_
FN:1865,_RNCNvNtNtNtNtCs64AwlgGXCHI_10valknut_rs9detectors9structure9directory5testss_26test_brute_force_partition0Bb_
FN:1876,_RNCNvNtNtNtNtCs64AwlgGXCHI_10valknut_rs9detectors9structure9directory5testss_26test_brute_force_partitions_0Bb_
FN:1229,_RNCNvNtNtNtNtCs64AwlgGXCHI_10valknut_rs9detectors9structure9directory5testss_27test_gather_directory_stats0Bb_
FN:1778,_RNCNvNtNtNtNtCs64AwlgGXCHI_10valknut_rs9detectors9structure9directory5testss_30test_partition_directory_basic0Bb_
FN:113,_RNvMNtNtNtCs64AwlgGXCHI_10valknut_rs9detectors9structure9directoryNtB2_17DirectoryAnalyzer12is_code_file
FN:893,_RNvMNtNtNtCs64AwlgGXCHI_10valknut_rs9detectors9structure9directoryNtB2_17DirectoryAnalyzer15extract_imports
FN:427,_RNvMNtNtNtCs64AwlgGXCHI_10valknut_rs9detectors9structure9directoryNtB2_17DirectoryAnalyzer16random_partition
FN:161,_RNvMNtNtNtCs64AwlgGXCHI_10valknut_rs9detectors9structure9directoryNtB2_17DirectoryAnalyzer17calculate_entropy
FN:404,_RNvMNtNtNtCs64AwlgGXCHI_10valknut_rs9detectors9structure9directoryNtB2_17DirectoryAnalyzer18calculate_cut_size
FN:118,_RNvMNtNtNtCs64AwlgGXCHI_10valknut_rs9detectors9structure9directoryNtB2_17DirectoryAnalyzer19count_lines_of_code
FN:586,_RNvMNtNtNtCs64AwlgGXCHI_10valknut_rs9detectors9structure9directoryNtB2_17DirectoryAnalyzer19find_best_node_swap
FN:856,_RNvMNtNtNtCs64AwlgGXCHI_10valknut_rs9detectors9structure9directoryNtB2_17DirectoryAnalyzer19generate_file_moves
FN:302,_RNvMNtNtNtCs64AwlgGXCHI_10valknut_rs9detectors9structure9directoryNtB2_17DirectoryAnalyzer19partition_directory
FN:1071,_RNvMNtNtNtCs64AwlgGXCHI_10valknut_rs9detectors9structure9directoryNtB2_17DirectoryAnalyzer20discover_directories
FN:1000,_RNvMNtNtNtCs64AwlgGXCHI_10valknut_rs9detectors9structure9directoryNtB2_17DirectoryAnalyzer20extract_rust_imports
FN:329,_RNvMNtNtNtCs64AwlgGXCHI_10valknut_rs9detectors9structure9directoryNtB2_17DirectoryAnalyzer21brute_force_partition
FN:1094,_RNvMNtNtNtCs64AwlgGXCHI_10valknut_rs9detectors9structure9directoryNtB2_17DirectoryAnalyzer21should_skip_directory
FN:250,_RNvMNtNtNtCs64AwlgGXCHI_10valknut_rs9detectors9structure9directoryNtB2_17DirectoryAnalyzer22build_dependency_graph
FN:908,_RNvMNtNtNtCs64AwlgGXCHI_10valknut_rs9detectors9structure9directoryNtB2_17DirectoryAnalyzer22extract_python_imports
FN:87,_RNvMNtNtNtCs64AwlgGXCHI_10valknut_rs9detectors9structure9directoryNtB2_17DirectoryAnalyzer22gather_directory_stats
FN:687,_RNvMNtNtNtCs64AwlgGXCHI_10valknut_rs9detectors9structure9directoryNtB2_17DirectoryAnalyzer23generate_partition_name
FN:573,_RNvMNtNtNtCs64AwlgGXCHI_10valknut_rs9detectors9structure9directoryNtB2_17DirectoryAnalyzer24calculate_partition_cost
FN:346,_RNvMNtNtNtCs64AwlgGXCHI_10valknut_rs9detectors9structure9directoryNtB2_17DirectoryAnalyzer24find_optimal_bipartition
FN:529,_RNvMNtNtNtCs64AwlgGXCHI_10valknut_rs9detectors9structure9directoryNtB2_17DirectoryAnalyzer24kernighan_lin_refinement
FN:492,_RNvMNtNtNtCs64AwlgGXCHI_10valknut_rs9detectors9structure9directoryNtB2_17DirectoryAnalyzer24refine_partition_with_kl
FN:648,_RNvMNtNtNtCs64AwlgGXCHI_10valknut_rs9detectors9structure9directoryNtB2_17DirectoryAnalyzer25communities_to_partitions
FN:124,_RNvMNtNtNtCs64AwlgGXCHI_10valknut_rs9detectors9structure9directoryNtB2_17DirectoryAnalyzer26calculate_gini_coefficient
FN:617,_RNvMNtNtNtCs64AwlgGXCHI_10valknut_rs9detectors9structure9directoryNtB2_17DirectoryAnalyzer26calculate_swap_improvement
FN:956,_RNvMNtNtNtCs64AwlgGXCHI_10valknut_rs9detectors9structure9directoryNtB2_17DirectoryAnalyzer26extract_javascript_imports
FN:194,_RNvMNtNtNtCs64AwlgGXCHI_10valknut_rs9detectors9structure9directoryNtB2_17DirectoryAnalyzer27analyze_directory_for_reorg
FN:33,_RNvMNtNtNtCs64AwlgGXCHI_10valknut_rs9detectors9structure9directoryNtB2_17DirectoryAnalyzer27calculate_directory_metrics
FN:438,_RNvMNtNtNtCs64AwlgGXCHI_10valknut_rs9detectors9structure9directoryNtB2_17DirectoryAnalyzer27label_propagation_partition
FN:790,_RNvMNtNtNtCs64AwlgGXCHI_10valknut_rs9detectors9structure9directoryNtB2_17DirectoryAnalyzer28estimate_cross_edges_reduced
FN:1048,_RNvMNtNtNtCs64AwlgGXCHI_10valknut_rs9detectors9structure9directoryNtB2_17DirectoryAnalyzer28resolve_import_to_local_file
FN:718,_RNvMNtNtNtCs64AwlgGXCHI_10valknut_rs9detectors9structure9directoryNtB2_17DirectoryAnalyzer29calculate_reorganization_gain
FN:1078,_RNvMNtNtNtCs64AwlgGXCHI_10valknut_rs9detectors9structure9directoryNtB2_17DirectoryAnalyzer29collect_directories_recursive
FN:846,_RNvMNtNtNtCs64AwlgGXCHI_10valknut_rs9detectors9structure9directoryNtB2_17DirectoryAnalyzer29generate_reorganization_rules
FN:829,_RNvMNtNtNtCs64AwlgGXCHI_10valknut_rs9detectors9structure9directoryNtB2_17DirectoryAnalyzer31calculate_reorganization_effort
FN:878,_RNvMNtNtNtCs64AwlgGXCHI_10valknut_rs9detectors9structure9directoryNtB2_17DirectoryAnalyzer35calculate_size_normalization_factor
FN:25,_RNvMNtNtNtCs64AwlgGXCHI_10valknut_rs9detectors9structure9directoryNtB2_17DirectoryAnalyzer3new
FNDA:2401,_RNCNCNvMNtNtNtCs64AwlgGXCHI_10valknut_rs9detectors9structure9directoryNtB6_17DirectoryAnalyzer26calculate_gini_coefficient00Bc_
FNDA:24,_RNCNvMNtNtNtCs64AwlgGXCHI_10valknut_rs9detectors9structure9directoryNtB4_17DirectoryAnalyzer15extract_imports0Ba_
FNDA:41,_RNCNvMNtNtNtCs64AwlgGXCHI_10valknut_rs9detectors9structure9directoryNtB4_17DirectoryAnalyzer17calculate_entropy0Ba_
FNDA:149,_RNCNvMNtNtNtCs64AwlgGXCHI_10valknut_rs9detectors9structure9directoryNtB4_17DirectoryAnalyzer17calculate_entropys0_0Ba_
FNDA:149,_RNCNvMNtNtNtCs64AwlgGXCHI_10valknut_rs9detectors9structure9directoryNtB4_17DirectoryAnalyzer17calculate_entropys1_0Ba_
FNDA:41,_RNCNvMNtNtNtCs64AwlgGXCHI_10valknut_rs9detectors9structure9directoryNtB4_17DirectoryAnalyzer17calculate_entropys_0Ba_
FNDA:1881,_RNCNvMNtNtNtCs64AwlgGXCHI_10valknut_rs9detectors9structure9directoryNtB4_17DirectoryAnalyzer19count_lines_of_code0Ba_
FNDA:0,_RNCNvMNtNtNtCs64AwlgGXCHI_10valknut_rs9detectors9structure9directoryNtB4_17DirectoryAnalyzer19find_best_node_swap0Ba_
FNDA:0,_RNCNvMNtNtNtCs64AwlgGXCHI_10valknut_rs9detectors9structure9directoryNtB4_17DirectoryAnalyzer19generate_file_moves0Ba_
FNDA:5,_RNCNvMNtNtNtCs64AwlgGXCHI_10valknut_rs9detectors9structure9directoryNtB4_17DirectoryAnalyzer20discover_directories0Ba_
FNDA:4,_RNCNvMNtNtNtCs64AwlgGXCHI_10valknut_rs9detectors9structure9directoryNtB4_17DirectoryAnalyzer20extract_rust_imports0Ba_
FNDA:10,_RNCNvMNtNtNtCs64AwlgGXCHI_10valknut_rs9detectors9structure9directoryNtB4_17DirectoryAnalyzer21should_skip_directory0Ba_
FNDA:62,_RNCNvMNtNtNtCs64AwlgGXCHI_10valknut_rs9detectors9structure9directoryNtB4_17DirectoryAnalyzer22build_dependency_graph0Ba_
FNDA:5,_RNCNvMNtNtNtCs64AwlgGXCHI_10valknut_rs9detectors9structure9directoryNtB4_17DirectoryAnalyzer22extract_python_imports0Ba_
FNDA:32,_RNCNvMNtNtNtCs64AwlgGXCHI_10valknut_rs9detectors9structure9directoryNtB4_17DirectoryAnalyzer22gather_directory_stats0Ba_
FNDA:18,_RNCNvMNtNtNtCs64AwlgGXCHI_10valknut_rs9detectors9structure9directoryNtB4_17DirectoryAnalyzer23generate_partition_name0Ba_
FNDA:17,_RNCNvMNtNtNtCs64AwlgGXCHI_10valknut_rs9detectors9structure9directoryNtB4_17DirectoryAnalyzer23generate_partition_names0_0Ba_
FNDA:0,_RNCNvMNtNtNtCs64AwlgGXCHI_10valknut_rs9detectors9structure9directoryNtB4_17DirectoryAnalyzer23generate_partition_names2_0Ba_
FNDA:19,_RNCNvMNtNtNtCs64AwlgGXCHI_10valknut_rs9detectors9structure9directoryNtB4_17DirectoryAnalyzer23generate_partition_names_0Ba_
FNDA:0,_RNCNvMNtNtNtCs64AwlgGXCHI_10valknut_rs9detectors9structure9directoryNtB4_17DirectoryAnalyzer24kernighan_lin_refinement0Ba_
FNDA:0,_RNCNvMNtNtNtCs64AwlgGXCHI_10valknut_rs9detectors9structure9directoryNtB4_17DirectoryAnalyzer24kernighan_lin_refinements_0Ba_
FNDA:0,_RNCNvMNtNtNtCs64AwlgGXCHI_10valknut_rs9detectors9structure9directoryNtB4_17DirectoryAnalyzer24refine_partition_with_kl0Ba_
FNDA:0,_RNCNvMNtNtNtCs64AwlgGXCHI_10valknut_rs9detectors9structure9directoryNtB4_17DirectoryAnalyzer24refine_partition_with_kls_0Ba_
FNDA:49,_RNCNvMNtNtNtCs64AwlgGXCHI_10valknut_rs9detectors9structure9directoryNtB4_17DirectoryAnalyzer26calculate_gini_coefficient0Ba_
FNDA:3,_RNCNvMNtNtNtCs64AwlgGXCHI_10valknut_rs9detectors9structure9directoryNtB4_17DirectoryAnalyzer26extract_javascript_imports0Ba_
FNDA:0,_RNCNvMNtNtNtCs64AwlgGXCHI_10valknut_rs9detectors9structure9directoryNtB4_17DirectoryAnalyzer27label_propagation_partition0Ba_
FNDA:4,_RNCNvMNtNtNtCs64AwlgGXCHI_10valknut_rs9detectors9structure9directoryNtB4_17DirectoryAnalyzer31calculate_reorganization_effort0Ba_
FNDA:45,_RNvNtNtNtNtCs64AwlgGXCHI_10valknut_rs9detectors9structure9directory5tests18create_test_config
FNDA:5,_RNvNtNtNtNtCs64AwlgGXCHI_10valknut_rs9detectors9structure9directory5tests20setup_test_directory
FNDA:1,_RNvNtNtNtNtCs64AwlgGXCHI_10valknut_rs9detectors9structure9directory5testss_17test_is_code_file
FNDA:1,_RNvNtNtNtNtCs64AwlgGXCHI_10valknut_rs9detectors9structure9directory5testss_21test_random_partition
FNDA:1,_RNvNtNtNtNtCs64AwlgGXCHI_10valknut_rs9detectors9structure9directory5testss_23test_calculate_cut_size
FNDA:1,_RNvNtNtNtNtCs64AwlgGXCHI_10valknut_rs9detectors9structure9directory5testss_24test_count_lines_of_code
FNDA:1,_RNvNtNtNtNtCs64AwlgGXCHI_10valknut_rs9detectors9structure9directory5testss_24test_generate_file_moves
FNDA:1,_RNvNtNtNtNtCs64AwlgGXCHI_10valknut_rs9detectors9structure9directory5testss_25test_discover_directories
FNDA:1,_RNvNtNtNtNtCs64AwlgGXCHI_10valknut_rs9detectors9structure9directory5testss_26test_brute_force_partition
FNDA:1,_RNvNtNtNtNtCs64AwlgGXCHI_10valknut_rs9detectors9structure9directory5testss_26test_should_skip_directory
FNDA:1,_RNvNtNtNtNtCs64AwlgGXCHI_10valknut_rs9detectors9structure9directory5testss_27test_directory_analyzer_new
FNDA:1,_RNvNtNtNtNtCs64AwlgGXCHI_10valknut_rs9detectors9structure9directory5testss_27test_gather_directory_stats
FNDA:1,_RNvNtNtNtNtCs64AwlgGXCHI_10valknut_rs9detectors9structure9directory5testss_28test_calculate_entropy_empty
FNDA:1,_RNvNtNtNtNtCs64AwlgGXCHI_10valknut_rs9detectors9structure9directory5testss_29test_find_optimal_bipartition
FNDA:1,_RNvNtNtNtNtCs64AwlgGXCHI_10valknut_rs9detectors9structure9directory5testss_30test_communities_to_partitions
FNDA:1,_RNvNtNtNtNtCs64AwlgGXCHI_10valknut_rs9detectors9structure9directory5testss_30test_partition_directory_basic
FNDA:1,_RNvNtNtNtNtCs64AwlgGXCHI_10valknut_rs9detectors9structure9directory5testss_31test_extract_rust_imports_basic
FNDA:1,_RNvNtNtNtNtCs64AwlgGXCHI_10valknut_rs9detectors9structure9directory5testss_32test_calculate_directory_metrics
FNDA:1,_RNvNtNtNtNtCs64AwlgGXCHI_10valknut_rs9detectors9structure9directory5testss_33test_build_dependency_graph_basic
FNDA:1,_RNvNtNtNtNtCs64AwlgGXCHI_10valknut_rs9detectors9structure9directory5testss_33test_calculate_entropy_total_zero
FNDA:1,_RNvNtNtNtNtCs64AwlgGXCHI_10valknut_rs9detectors9structure9directory5testss_33test_estimate_cross_edges_reduced
FNDA:1,_RNvNtNtNtNtCs64AwlgGXCHI_10valknut_rs9detectors9structure9directory5testss_33test_extract_imports_by_extension
FNDA:1,_RNvNtNtNtNtCs64AwlgGXCHI_10valknut_rs9detectors9structure9directory5testss_33test_extract_python_imports_basic
FNDA:1,_RNvNtNtNtNtCs64AwlgGXCHI_10valknut_rs9detectors9structure9directory5testss_33test_resolve_import_to_local_file
FNDA:1,_RNvNtNtNtNtCs64AwlgGXCHI_10valknut_rs9detectors9structure9directory5testss_34test_calculate_reorganization_gain
FNDA:1,_RNvNtNtNtNtCs64AwlgGXCHI_10valknut_rs9detectors9structure9directory5testss_35test_calculate_entropy_equal_values
FNDA:1,_RNvNtNtNtNtCs64AwlgGXCHI_10valknut_rs9detectors9structure9directory5testss_35test_calculate_entropy_single_value
FNDA:1,_RNvNtNtNtNtCs64AwlgGXCHI_10valknut_rs9detectors9structure9directory5testss_36test_calculate_reorganization_effort
FNDA:1,_RNvNtNtNtNtCs64AwlgGXCHI_10valknut_rs9detectors9structure9directory5testss_37test_calculate_gini_coefficient_empty
FNDA:1,_RNvNtNtNtNtCs64AwlgGXCHI_10valknut_rs9detectors9structure9directory5testss_37test_extract_javascript_imports_basic
FNDA:1,_RNvNtNtNtNtCs64AwlgGXCHI_10valknut_rs9detectors9structure9directory5testss_37test_generate_partition_name_fallback
FNDA:1,_RNvNtNtNtNtCs64AwlgGXCHI_10valknut_rs9detectors9structure9directory5testss_38test_label_propagation_partition_empty
FNDA:1,_RNvNtNtNtNtCs64AwlgGXCHI_10valknut_rs9detectors9structure9directory5testss_39test_extract_python_imports_star_import
FNDA:1,_RNvNtNtNtNtCs64AwlgGXCHI_10valknut_rs9detectors9structure9directory5testss_40test_calculate_directory_metrics_caching
FNDA:1,_RNvNtNtNtNtCs64AwlgGXCHI_10valknut_rs9detectors9structure9directory5testss_40test_calculate_gini_coefficient_sum_zero
FNDA:1,_RNvNtNtNtNtCs64AwlgGXCHI_10valknut_rs9detectors9structure9directory5testss_40test_calculate_size_normalization_factor
FNDA:1,_RNvNtNtNtNtCs64AwlgGXCHI_10valknut_rs9detectors9structure9directory5testss_43test_calculate_entropy_large_array_parallel
FNDA:1,_RNvNtNtNtNtCs64AwlgGXCHI_10valknut_rs9detectors9structure9directory5testss_43test_resolve_import_relative_import_skipped
FNDA:1,_RNvNtNtNtNtCs64AwlgGXCHI_10valknut_rs9detectors9structure9directory5testss_43test_resolve_import_to_local_file_not_found
FNDA:1,_RNvNtNtNtNtCs64AwlgGXCHI_10valknut_rs9detectors9structure9directory5testss_44test_calculate_gini_coefficient_equal_values
FNDA:1,_RNvNtNtNtNtCs64AwlgGXCHI_10valknut_rs9detectors9structure9directory5testss_44test_calculate_gini_coefficient_single_value
FNDA:1,_RNvNtNtNtNtCs64AwlgGXCHI_10valknut_rs9detectors9structure9directory5testss_46test_analyze_directory_for_reorg_low_imbalance
FNDA:1,_RNvNtNtNtNtCs64AwlgGXCHI_10valknut_rs9detectors9structure9directory5testss_46test_calculate_gini_coefficient_unequal_values
FNDA:1,_RNvNtNtNtNtCs64AwlgGXCHI_10valknut_rs9detectors9structure9directory5testss_47test_generate_partition_name_with_common_tokens
FNDA:1,_RNvNtNtNtNtCs64AwlgGXCHI_10valknut_rs9detectors9structure9directory5testss_49test_analyze_directory_for_reorg_meets_conditions
FNDA:1,_RNvNtNtNtNtCs64AwlgGXCHI_10valknut_rs9detectors9structure9directory5testss_52test_calculate_gini_coefficient_large_array_parallel
FNDA:1,_RNvNtNtNtNtCs64AwlgGXCHI_10valknut_rs9detectors9structure9directory5testss_56test_analyze_directory_for_reorg_small_directory_skipped
FNDA:2,_RNCNCNvNtNtNtNtCs64AwlgGXCHI_10valknut_rs9detectors9structure9directory5testss_25test_discover_directories00Bd_
FNDA:3,_RNCNCNvNtNtNtNtCs64AwlgGXCHI_10valknut_rs9detectors9structure9directory5testss_25test_discover_directories0s0_0Bd_
FNDA:1,_RNCNCNvNtNtNtNtCs64AwlgGXCHI_10valknut_rs9detectors9structure9directory5testss_25test_discover_directories0s_0Bd_
FNDA:6,_RNCNvNtNtNtNtCs64AwlgGXCHI_10valknut_rs9detectors9structure9directory5testss_21test_random_partition0Bb_
FNDA:3,_RNCNvNtNtNtNtCs64AwlgGXCHI_10valknut_rs9detectors9structure9directory5testss_21test_random_partitions_0Bb_
FNDA:1,_RNCNvNtNtNtNtCs64AwlgGXCHI_10valknut_rs9detectors9structure9directory5testss_25test_discover_directories0Bb_
FNDA:4,_RNCNvNtNtNtNtCs64AwlgGXCHI_10valknut_rs9detectors9structure9directory5testss_26test_brute_force_partition0Bb_
FNDA:2,_RNCNvNtNtNtNtCs64AwlgGXCHI_10valknut_rs9detectors9structure9directory5testss_26test_brute_force_partitions_0Bb_
FNDA:5,_RNCNvNtNtNtNtCs64AwlgGXCHI_10valknut_rs9detectors9structure9directory5testss_27test_gather_directory_stats0Bb_
FNDA:2,_RNCNvNtNtNtNtCs64AwlgGXCHI_10valknut_rs9detectors9structure9directory5testss_30test_partition_directory_basic0Bb_
FNDA:100,_RNvMNtNtNtCs64AwlgGXCHI_10valknut_rs9detectors9structure9directoryNtB2_17DirectoryAnalyzer12is_code_file
FNDA:24,_RNvMNtNtNtCs64AwlgGXCHI_10valknut_rs9detectors9structure9directoryNtB2_17DirectoryAnalyzer15extract_imports
FNDA:1,_RNvMNtNtNtCs64AwlgGXCHI_10valknut_rs9detectors9structure9directoryNtB2_17DirectoryAnalyzer16random_partition
FNDA:15,_RNvMNtNtNtCs64AwlgGXCHI_10valknut_rs9detectors9structure9directoryNtB2_17DirectoryAnalyzer17calculate_entropy
FNDA:113,_RNvMNtNtNtCs64AwlgGXCHI_10valknut_rs9detectors9structure9directoryNtB2_17DirectoryAnalyzer18calculate_cut_size
FNDA:53,_RNvMNtNtNtCs64AwlgGXCHI_10valknut_rs9detectors9structure9directoryNtB2_17DirectoryAnalyzer19count_lines_of_code
FNDA:0,_RNvMNtNtNtCs64AwlgGXCHI_10valknut_rs9detectors9structure9directoryNtB2_17DirectoryAnalyzer19find_best_node_swap
FNDA:2,_RNvMNtNtNtCs64AwlgGXCHI_10valknut_rs9detectors9structure9directoryNtB2_17DirectoryAnalyzer19generate_file_moves
FNDA:2,_RNvMNtNtNtCs64AwlgGXCHI_10valknut_rs9detectors9structure9directoryNtB2_17DirectoryAnalyzer19partition_directory
FNDA:5,_RNvMNtNtNtCs64AwlgGXCHI_10valknut_rs9detectors9structure9directoryNtB2_17DirectoryAnalyzer20discover_directories
FNDA:3,_RNvMNtNtNtCs64AwlgGXCHI_10valknut_rs9detectors9structure9directoryNtB2_17DirectoryAnalyzer20extract_rust_imports
FNDA:3,_RNvMNtNtNtCs64AwlgGXCHI_10valknut_rs9detectors9structure9directoryNtB2_17DirectoryAnalyzer21brute_force_partition
FNDA:10,_RNvMNtNtNtCs64AwlgGXCHI_10valknut_rs9detectors9structure9directoryNtB2_17DirectoryAnalyzer21should_skip_directory
FNDA:6,_RNvMNtNtNtCs64AwlgGXCHI_10valknut_rs9detectors9structure9directoryNtB2_17DirectoryAnalyzer22build_dependency_graph
FNDA:21,_RNvMNtNtNtCs64AwlgGXCHI_10valknut_rs9detectors9structure9directoryNtB2_17DirectoryAnalyzer22extract_python_imports
FNDA:7,_RNvMNtNtNtCs64AwlgGXCHI_10valknut_rs9detectors9structure9directoryNtB2_17DirectoryAnalyzer22gather_directory_stats
FNDA:8,_RNvMNtNtNtCs64AwlgGXCHI_10valknut_rs9detectors9structure9directoryNtB2_17DirectoryAnalyzer23generate_partition_name
FNDA:0,_RNvMNtNtNtCs64AwlgGXCHI_10valknut_rs9detectors9structure9directoryNtB2_17DirectoryAnalyzer24calculate_partition_cost
FNDA:4,_RNvMNtNtNtCs64AwlgGXCHI_10valknut_rs9detectors9structure9directoryNtB2_17DirectoryAnalyzer24find_optimal_bipartition
FNDA:0,_RNvMNtNtNtCs64AwlgGXCHI_10valknut_rs9detectors9structure9directoryNtB2_17DirectoryAnalyzer24kernighan_lin_refinement
FNDA:0,_RNvMNtNtNtCs64AwlgGXCHI_10valknut_rs9detectors9structure9directoryNtB2_17DirectoryAnalyzer24refine_partition_with_kl
FNDA:3,_RNvMNtNtNtCs64AwlgGXCHI_10valknut_rs9detectors9structure9directoryNtB2_17DirectoryAnalyzer25communities_to_partitions
FNDA:16,_RNvMNtNtNtCs64AwlgGXCHI_10valknut_rs9detectors9structure9directoryNtB2_17DirectoryAnalyzer26calculate_gini_coefficient
FNDA:0,_RNvMNtNtNtCs64AwlgGXCHI_10valknut_rs9detectors9structure9directoryNtB2_17DirectoryAnalyzer26calculate_swap_improvement
FNDA:3,_RNvMNtNtNtCs64AwlgGXCHI_10valknut_rs9detectors9structure9directoryNtB2_17DirectoryAnalyzer26extract_javascript_imports
FNDA:3,_RNvMNtNtNtCs64AwlgGXCHI_10valknut_rs9detectors9structure9directoryNtB2_17DirectoryAnalyzer27analyze_directory_for_reorg
FNDA:7,_RNvMNtNtNtCs64AwlgGXCHI_10valknut_rs9detectors9structure9directoryNtB2_17DirectoryAnalyzer27calculate_directory_metrics
FNDA:1,_RNvMNtNtNtCs64AwlgGXCHI_10valknut_rs9detectors9structure9directoryNtB2_17DirectoryAnalyzer27label_propagation_partition
FNDA:3,_RNvMNtNtNtCs64AwlgGXCHI_10valknut_rs9detectors9structure9directoryNtB2_17DirectoryAnalyzer28estimate_cross_edges_reduced
FNDA:5,_RNvMNtNtNtCs64AwlgGXCHI_10valknut_rs9detectors9structure9directoryNtB2_17DirectoryAnalyzer28resolve_import_to_local_file
FNDA:2,_RNvMNtNtNtCs64AwlgGXCHI_10valknut_rs9detectors9structure9directoryNtB2_17DirectoryAnalyzer29calculate_reorganization_gain
FNDA:8,_RNvMNtNtNtCs64AwlgGXCHI_10valknut_rs9detectors9structure9directoryNtB2_17DirectoryAnalyzer29collect_directories_recursive
FNDA:1,_RNvMNtNtNtCs64AwlgGXCHI_10valknut_rs9detectors9structure9directoryNtB2_17DirectoryAnalyzer29generate_reorganization_rules
FNDA:2,_RNvMNtNtNtCs64AwlgGXCHI_10valknut_rs9detectors9structure9directoryNtB2_17DirectoryAnalyzer31calculate_reorganization_effort
FNDA:13,_RNvMNtNtNtCs64AwlgGXCHI_10valknut_rs9detectors9structure9directoryNtB2_17DirectoryAnalyzer35calculate_size_normalization_factor
FNDA:68,_RNvMNtNtNtCs64AwlgGXCHI_10valknut_rs9detectors9structure9directoryNtB2_17DirectoryAnalyzer3new
FNF:120
FNH:107
DA:25,68
DA:26,68
DA:27,68
DA:28,68
DA:29,68
DA:30,68
DA:33,7
DA:35,7
DA:36,1
DA:37,6
DA:39,6
DA:40,6
DA:43,6
DA:44,6
DA:47,6
DA:48,6
DA:49,6
DA:52,6
DA:53,6
DA:54,6
DA:57,6
DA:60,6
DA:61,6
DA:62,6
DA:63,6
DA:65,6
DA:67,6
DA:68,6
DA:69,6
DA:70,6
DA:71,6
DA:72,6
DA:73,6
DA:74,6
DA:75,6
DA:76,6
DA:77,6
DA:78,6
DA:81,6
DA:83,6
DA:84,7
DA:87,7
DA:88,7
DA:89,7
DA:90,7
DA:92,37
DA:93,37
DA:94,37
DA:96,37
DA:97,5
DA:98,32
DA:99,32
DA:100,32
DA:101,32
DA:102,32
DA:103,32
DA:104,0
DA:105,0
DA:106,0
DA:109,7
DA:110,7
DA:113,100
DA:114,100
DA:115,100
DA:118,53
DA:119,53
DA:120,1881
DA:121,53
DA:124,16
DA:125,16
DA:126,4
DA:127,12
DA:129,12
DA:130,12
DA:132,12
DA:133,1
DA:134,11
DA:137,11
DA:138,10
DA:139,42
DA:140,190
DA:141,190
DA:142,190
DA:144,10
DA:145,1
DA:148,1
DA:149,1
DA:150,49
DA:151,49
DA:152,2401
DA:153,49
DA:154,49
DA:155,1
DA:157,1
DA:158,16
DA:161,15
DA:162,15
DA:163,1
DA:164,14
DA:166,14
DA:167,14
DA:168,1
DA:169,13
DA:172,13
DA:173,12
DA:174,41
DA:175,41
DA:176,41
DA:177,41
DA:178,41
DA:179,12
DA:180,1
DA:183,1
DA:184,1
DA:185,149
DA:186,149
DA:187,149
DA:188,149
DA:189,149
DA:190,1
DA:191,15
DA:194,3
DA:195,3
DA:198,3
DA:199,2
DA:200,1
DA:203,1
DA:204,0
DA:205,0
DA:207,1
DA:208,0
DA:209,1
DA:212,1
DA:213,0
DA:214,1
DA:217,1
DA:218,1
DA:220,1
DA:221,0
DA:222,1
DA:225,1
DA:227,1
DA:228,0
DA:229,1
DA:232,1
DA:233,1
DA:235,1
DA:236,1
DA:237,1
DA:238,1
DA:239,1
DA:240,1
DA:241,1
DA:242,1
DA:243,1
DA:244,1
DA:246,1
DA:247,3
DA:250,6
DA:251,6
DA:252,6
DA:255,113
DA:256,113
DA:257,113
DA:259,113
DA:260,70
DA:261,62
DA:262,20
DA:263,20
DA:265,20
DA:266,20
DA:267,20
DA:268,20
DA:269,20
DA:271,20
DA:272,20
DA:273,42
DA:274,8
DA:275,43
DA:279,26
DA:280,20
DA:281,22
DA:283,2
DA:284,2
DA:285,2
DA:286,2
DA:287,2
DA:288,2
DA:289,2
DA:290,2
DA:291,2
DA:292,2
DA:293,0
DA:295,0
DA:298,6
DA:299,6
DA:302,2
DA:303,2
DA:304,0
DA:305,2
DA:308,2
DA:309,2
DA:310,2
DA:312,2
DA:315,2
DA:317,2
DA:320,0
DA:321,0
DA:325,2
DA:326,2
DA:329,3
DA:330,3
DA:331,3
DA:332,3
DA:333,3
DA:334,3
DA:335,3
DA:337,3
DA:338,3
DA:341,0
DA:343,3
DA:346,4
DA:347,4
DA:348,4
DA:349,4
DA:350,4
DA:351,4
DA:352,4
DA:353,4
DA:354,4
DA:357,112
DA:358,112
DA:359,112
DA:360,112
DA:361,112
DA:363,596
DA:364,596
DA:365,298
DA:366,298
DA:368,298
DA:369,298
DA:374,112
DA:375,112
DA:376,112
DA:377,112
DA:379,0
DA:383,112
DA:384,34
DA:385,7
DA:386,7
DA:387,7
DA:388,27
DA:389,78
DA:392,4
DA:394,1
DA:395,1
DA:396,1
DA:397,1
DA:399,3
DA:401,4
DA:404,113
DA:405,113
DA:406,113
DA:407,113
DA:408,113
DA:409,113
DA:410,113
DA:411,113
DA:413,113
DA:415,412
DA:416,299
DA:417,4
DA:418,3
DA:419,3
DA:423,113
DA:424,113
DA:427,1
DA:428,1
DA:430,6
DA:431,6
DA:432,6
DA:434,1
DA:435,1
DA:438,1
DA:439,1
DA:440,1
DA:443,1
DA:444,0
DA:445,0
DA:447,1
DA:448,1
DA:449,1
DA:451,2
DA:452,1
DA:455,1
DA:459,1
DA:461,0
DA:463,0
DA:464,0
DA:465,0
DA:466,0
DA:467,0
DA:471,0
DA:472,0
DA:473,0
DA:474,0
DA:475,0
DA:476,0
DA:479,1
DA:483,1
DA:484,1
DA:485,0
DA:486,0
DA:488,1
DA:489,1
DA:492,0
DA:493,0
DA:494,0
DA:495,0
DA:496,0
DA:497,0
DA:499,0
DA:501,0
DA:502,0
DA:503,0
DA:504,0
DA:505,0
DA:506,0
DA:509,0
DA:511,0
DA:512,0
DA:513,0
DA:514,0
DA:515,0
DA:516,0
DA:517,0
DA:518,0
DA:519,0
DA:520,0
DA:525,0
DA:526,0
DA:529,0
DA:530,0
DA:531,0
DA:532,0
DA:533,0
DA:534,0
DA:535,0
DA:536,0
DA:538,0
DA:539,0
DA:542,0
DA:543,0
DA:544,0
DA:547,0
DA:548,0
DA:550,0
DA:552,0
DA:553,0
DA:554,0
DA:555,0
DA:557,0
DA:558,0
DA:560,0
DA:561,0
DA:562,0
DA:566,0
DA:569,0
DA:570,0
DA:573,0
DA:574,0
DA:576,0
DA:577,0
DA:578,0
DA:579,0
DA:582,0
DA:583,0
DA:586,0
DA:587,0
DA:588,0
DA:589,0
DA:590,0
DA:591,0
DA:592,0
DA:593,0
DA:596,0
DA:597,0
DA:598,0
DA:599,0
DA:600,0
DA:601,0
DA:605,0
DA:606,0
DA:607,0
DA:608,0
DA:609,0
DA:610,0
DA:613,0
DA:614,0
DA:617,0
DA:618,0
DA:619,0
DA:620,0
DA:621,0
DA:622,0
DA:623,0
DA:624,0
DA:625,0
DA:627,0
DA:628,0
DA:630,0
DA:631,0
DA:632,0
DA:634,0
DA:635,0
DA:636,0
DA:637,0
DA:638,0
DA:639,0
DA:640,0
DA:644,0
DA:645,0
DA:648,3
DA:649,3
DA:650,3
DA:651,3
DA:652,3
DA:653,3
DA:654,3
DA:656,6
DA:657,6
DA:658,6
DA:660,19
DA:661,13
DA:663,13
DA:664,11
DA:666,2
DA:668,13
DA:669,13
DA:670,0
DA:674,6
DA:676,6
DA:677,6
DA:678,6
DA:679,6
DA:680,6
DA:683,3
DA:684,3
DA:687,8
DA:689,8
DA:691,26
DA:692,18
DA:694,21
DA:695,21
DA:696,21
DA:697,19
DA:698,19
DA:700,0
DA:704,8
DA:705,17
DA:706,8
DA:707,1
DA:708,7
DA:711,7
DA:712,7
DA:713,7
DA:714,7
DA:715,8
DA:718,2
DA:719,2
DA:720,2
DA:721,2
DA:722,2
DA:723,2
DA:725,2
DA:727,6
DA:729,4
DA:730,4
DA:731,4
DA:734,4
DA:735,4
DA:737,0
DA:739,4
DA:740,4
DA:741,4
DA:744,4
DA:745,4
DA:748,4
DA:749,4
DA:750,4
DA:753,4
DA:754,4
DA:755,4
DA:758,4
DA:761,4
DA:762,4
DA:763,4
DA:764,4
DA:766,4
DA:767,4
DA:771,2
DA:772,2
DA:774,0
DA:778,2
DA:781,2
DA:783,2
DA:784,2
DA:785,2
DA:786,2
DA:787,2
DA:790,3
DA:792,3
DA:795,3
DA:796,5
DA:797,16
DA:798,11
DA:799,11
DA:803,3
DA:804,3
DA:806,3
DA:807,0
DA:808,0
DA:809,0
DA:811,0
DA:814,0
DA:815,0
DA:816,0
DA:817,0
DA:818,0
DA:819,0
DA:820,0
DA:821,0
DA:825,3
DA:826,3
DA:829,2
DA:830,2
DA:831,2
DA:832,2
DA:833,2
DA:834,4
DA:837,2
DA:839,2
DA:840,2
DA:841,2
DA:842,2
DA:843,2
DA:846,1
DA:847,1
DA:848,1
DA:849,1
DA:850,1
DA:851,1
DA:853,1
DA:856,2
DA:857,2
DA:859,5
DA:860,11
DA:862,8
DA:863,8
DA:865,8
DA:867,8
DA:868,8
DA:869,8
DA:870,8
DA:874,2
DA:875,2
DA:878,13
DA:881,13
DA:882,13
DA:884,13
DA:885,13
DA:888,13
DA:889,13
DA:890,13
DA:893,24
DA:894,24
DA:895,24
DA:896,24
DA:897,24
DA:899,24
DA:900,24
DA:901,5
DA:902,3
DA:903,1
DA:905,24
DA:908,21
DA:909,21
DA:911,483
DA:912,483
DA:915,483
DA:916,461
DA:917,22
DA:919,22
DA:920,4
DA:921,4
DA:922,4
DA:923,4
DA:924,4
DA:925,4
DA:926,4
DA:927,4
DA:928,18
DA:930,5
DA:931,5
DA:932,5
DA:934,5
DA:935,1
DA:937,4
DA:938,5
DA:939,4
DA:942,5
DA:943,5
DA:944,5
DA:945,5
DA:946,5
DA:948,0
DA:949,13
DA:952,21
DA:953,21
DA:956,3
DA:957,3
DA:959,7
DA:960,7
DA:963,7
DA:964,1
DA:965,6
DA:967,6
DA:969,5
DA:970,5
DA:971,5
DA:973,5
DA:974,1
DA:975,4
DA:977,2
DA:978,2
DA:979,3
DA:980,2
DA:983,2
DA:986,5
DA:987,5
DA:988,5
DA:989,5
DA:990,5
DA:992,0
DA:993,1
DA:996,3
DA:997,3
DA:1000,3
DA:1001,3
DA:1003,7
DA:1004,7
DA:1007,7
DA:1008,1
DA:1009,6
DA:1011,6
DA:1012,5
DA:1014,5
DA:1016,2
DA:1017,2
DA:1019,2
DA:1020,2
DA:1021,2
DA:1022,4
DA:1023,2
DA:1025,2
DA:1026,2
DA:1027,2
DA:1028,2
DA:1029,2
DA:1030,2
DA:1031,0
DA:1032,3
DA:1033,3
DA:1034,3
DA:1035,3
DA:1036,3
DA:1037,3
DA:1038,3
DA:1039,3
DA:1040,3
DA:1041,1
DA:1044,3
DA:1045,3
DA:1048,5
DA:1050,5
DA:1053,5
DA:1054,1
DA:1055,4
DA:1058,4
DA:1060,10
DA:1061,9
DA:1062,9
DA:1063,3
DA:1064,6
DA:1067,1
DA:1068,5
DA:1071,5
DA:1072,5
DA:1073,5
DA:1074,5
DA:1075,5
DA:1078,8
DA:1079,8
DA:1080,7
DA:1081,7
DA:1083,7
DA:1084,4
DA:1085,3
DA:1086,3
DA:1087,1
DA:1088,3
DA:1090,8
DA:1091,8
DA:1094,10
DA:1095,10
DA:1096,10
DA:1097,10
DA:1100,10
DA:1101,10
DA:1102,5
DA:1103,10
DA:1115,45
DA:1116,45
DA:1117,45
DA:1118,45
DA:1119,45
DA:1120,45
DA:1121,45
DA:1122,45
DA:1123,45
DA:1124,45
DA:1125,45
DA:1126,45
DA:1127,45
DA:1128,45
DA:1129,45
DA:1130,45
DA:1131,45
DA:1132,45
DA:1133,45
DA:1134,45
DA:1135,45
DA:1136,45
DA:1137,45
DA:1138,45
DA:1139,45
DA:1140,45
DA:1141,45
DA:1142,45
DA:1143,45
DA:1144,45
DA:1145,45
DA:1146,45
DA:1147,45
DA:1148,45
DA:1150,5
DA:1151,5
DA:1152,5
DA:1155,5
DA:1156,5
DA:1157,5
DA:1158,5
DA:1159,5
DA:1162,5
DA:1163,5
DA:1165,5
DA:1166,5
DA:1169,1
DA:1170,1
DA:1171,1
DA:1173,1
DA:1174,1
DA:1175,1
DA:1178,1
DA:1179,1
DA:1180,1
DA:1182,1
DA:1183,1
DA:1184,1
DA:1185,1
DA:1186,1
DA:1187,1
DA:1188,1
DA:1191,1
DA:1192,1
DA:1193,1
DA:1195,1
DA:1196,1
DA:1197,1
DA:1198,1
DA:1199,1
DA:1200,1
DA:1201,1
DA:1202,1
DA:1203,1
DA:1204,1
DA:1205,1
DA:1207,1
DA:1208,1
DA:1209,1
DA:1212,1
DA:1213,1
DA:1214,1
DA:1217,1
DA:1218,1
DA:1219,1
DA:1220,1
DA:1222,1
DA:1223,1
DA:1224,1
DA:1226,1
DA:1227,1
DA:1228,1
DA:1229,5
DA:1230,1
DA:1233,1
DA:1234,1
DA:1235,1
DA:1237,1
DA:1238,1
DA:1239,1
DA:1242,1
DA:1243,1
DA:1244,1
DA:1246,1
DA:1247,1
DA:1248,1
DA:1251,1
DA:1252,1
DA:1253,1
DA:1255,1
DA:1256,1
DA:1257,1
DA:1260,1
DA:1261,1
DA:1262,1
DA:1264,1
DA:1265,1
DA:1266,1
DA:1269,1
DA:1270,1
DA:1271,1
DA:1273,1
DA:1274,1
DA:1275,1
DA:1278,1
DA:1279,1
DA:1280,1
DA:1282,1
DA:1283,1
DA:1284,1
DA:1287,1
DA:1288,1
DA:1289,1
DA:1291,1
DA:1292,1
DA:1293,1
DA:1296,1
DA:1297,1
DA:1298,1
DA:1300,1
DA:1301,1
DA:1302,1
DA:1305,1
DA:1306,1
DA:1307,1
DA:1308,1
DA:1311,1
DA:1312,1
DA:1313,1
DA:1314,1
DA:1316,1
DA:1318,1
DA:1319,1
DA:1320,1
DA:1321,1
DA:1322,1
DA:1323,1
DA:1324,1
DA:1325,1
DA:1326,1
DA:1327,1
DA:1328,1
DA:1331,1
DA:1332,1
DA:1333,1
DA:1334,1
DA:1337,1
DA:1340,1
DA:1342,1
DA:1343,1
DA:1344,1
DA:1345,1
DA:1346,1
DA:1349,1
DA:1350,1
DA:1351,1
DA:1353,1
DA:1354,1
DA:1355,1
DA:1356,1
DA:1357,1
DA:1358,1
DA:1359,1
DA:1362,1
DA:1363,1
DA:1364,1
DA:1366,1
DA:1367,1
DA:1368,1
DA:1369,1
DA:1370,1
DA:1372,1
DA:1374,1
DA:1376,1
DA:1377,1
DA:1379,1
DA:1380,1
DA:1381,1
DA:1382,1
DA:1385,1
DA:1386,1
DA:1387,1
DA:1389,1
DA:1390,1
DA:1392,1
DA:1393,1
DA:1394,1
DA:1395,1
DA:1398,1
DA:1399,1
DA:1400,1
DA:1402,1
DA:1403,1
DA:1404,1
DA:1405,1
DA:1407,1
DA:1409,1
DA:1410,1
DA:1411,1
DA:1412,1
DA:1413,1
DA:1416,1
DA:1417,1
DA:1418,1
DA:1420,1
DA:1421,1
DA:1422,1
DA:1423,1
DA:1425,1
DA:1427,1
DA:1428,1
DA:1429,1
DA:1431,1
DA:1432,1
DA:1433,1
DA:1434,1
DA:1437,1
DA:1438,1
DA:1439,1
DA:1441,1
DA:1442,1
DA:1443,1
DA:1444,1
DA:1447,1
DA:1448,1
DA:1449,1
DA:1452,1
DA:1453,1
DA:1454,1
DA:1456,1
DA:1457,1
DA:1458,1
DA:1461,1
DA:1462,1
DA:1463,1
DA:1466,1
DA:1467,1
DA:1468,1
DA:1471,1
DA:1472,1
DA:1473,1
DA:1474,1
DA:1475,1
DA:1476,1
DA:1477,1
DA:1478,1
DA:1479,1
DA:1480,1
DA:1481,1
DA:1483,1
DA:1484,1
DA:1485,1
DA:1486,1
DA:1488,1
DA:1489,1
DA:1491,1
DA:1492,1
DA:1493,1
DA:1496,1
DA:1497,1
DA:1498,1
DA:1501,1
DA:1502,6
DA:1503,6
DA:1504,6
DA:1505,6
DA:1506,6
DA:1507,6
DA:1508,6
DA:1510,1
DA:1512,1
DA:1513,3
DA:1514,1
DA:1517,1
DA:1518,1
DA:1519,1
DA:1522,1
DA:1523,1
DA:1524,1
DA:1525,1
DA:1527,1
DA:1528,1
DA:1530,1
DA:1533,1
DA:1534,2
DA:1535,1
DA:1536,3
DA:1537,1
DA:1540,1
DA:1541,1
DA:1542,1
DA:1544,1
DA:1545,1
DA:1547,1
DA:1549,1
DA:1552,1
DA:1553,1
DA:1556,1
DA:1557,1
DA:1558,1
DA:1560,1
DA:1561,1
DA:1562,1
DA:1563,1
DA:1564,1
DA:1565,1
DA:1566,1
DA:1567,1
DA:1568,1
DA:1569,1
DA:1570,1
DA:1573,1
DA:1575,1
DA:1576,1
DA:1577,1
DA:1580,1
DA:1581,1
DA:1582,1
DA:1583,1
DA:1585,1
DA:1586,1
DA:1587,1
DA:1588,1
DA:1589,1
DA:1590,1
DA:1593,1
DA:1595,1
DA:1596,1
DA:1597,1
DA:1598,1
DA:1601,1
DA:1602,1
DA:1603,1
DA:1604,1
DA:1607,1
DA:1609,1
DA:1610,1
DA:1611,1
DA:1612,1
DA:1613,1
DA:1614,1
DA:1616,1
DA:1618,1
DA:1619,1
DA:1620,1
DA:1623,1
DA:1624,1
DA:1625,1
DA:1626,1
DA:1628,1
DA:1629,1
DA:1630,1
DA:1631,1
DA:1632,1
DA:1633,1
DA:1635,1
DA:1636,1
DA:1637,1
DA:1640,1
DA:1641,1
DA:1642,1
DA:1643,1
DA:1645,1
DA:1646,1
DA:1647,1
DA:1648,1
DA:1649,1
DA:1650,1
DA:1652,1
DA:1653,1
DA:1654,1
DA:1657,1
DA:1658,1
DA:1659,1
DA:1662,1
DA:1663,1
DA:1665,1
DA:1666,1
DA:1667,1
DA:1670,1
DA:1671,1
DA:1672,1
DA:1674,1
DA:1675,1
DA:1676,1
DA:1679,1
DA:1680,1
DA:1681,1
DA:1684,1
DA:1685,1
DA:1687,1
DA:1688,1
DA:1691,1
DA:1692,1
DA:1693,1
DA:1695,1
DA:1696,1
DA:1697,1
DA:1700,1
DA:1702,1
DA:1705,1
DA:1706,1
DA:1707,1
DA:1708,1
DA:1709,1
DA:1710,1
DA:1711,1
DA:1712,1
DA:1714,7
DA:1715,6
DA:1716,6
DA:1718,1
DA:1720,1
DA:1721,1
DA:1723,1
DA:1725,1
DA:1728,1
DA:1729,1
DA:1730,1
DA:1731,1
DA:1734,1
DA:1735,1
DA:1737,1
DA:1739,1
DA:1740,1
DA:1742,1
DA:1745,1
DA:1746,1
DA:1749,1
DA:1750,1
DA:1753,1
DA:1754,1
DA:1755,1
DA:1757,1
DA:1758,1
DA:1760,1
DA:1762,1
DA:1763,1
DA:1764,1
DA:1767,1
DA:1768,1
DA:1769,1
DA:1770,1
DA:1772,1
DA:1773,1
DA:1775,1
DA:1777,1
DA:1778,2
DA:1779,1
DA:1782,1
DA:1783,1
DA:1784,1
DA:1786,1
DA:1787,1
DA:1788,1
DA:1789,1
DA:1790,1
DA:1791,1
DA:1792,1
DA:1793,1
DA:1794,1
DA:1795,1
DA:1796,1
DA:1799,1
DA:1800,1
DA:1801,1
DA:1802,1
DA:1803,1
DA:1804,1
DA:1805,1
DA:1806,1
DA:1807,1
DA:1808,1
DA:1809,1
DA:1810,1
DA:1812,1
DA:1814,1
DA:1815,1
DA:1816,1
DA:1819,1
DA:1820,1
DA:1821,1
DA:1824,1
DA:1825,1
DA:1826,1
DA:1827,1
DA:1828,1
DA:1829,1
DA:1830,1
DA:1831,1
DA:1832,1
DA:1833,1
DA:1834,1
DA:1836,1
DA:1838,1
DA:1840,1
DA:1841,1
DA:1842,1
DA:1843,1
DA:1844,1
DA:1845,1
DA:1848,1
DA:1849,1
DA:1850,1
DA:1852,1
DA:1853,1
DA:1855,1
DA:1856,1
DA:1859,1
DA:1860,1
DA:1861,1
DA:1864,1
DA:1865,4
DA:1866,4
DA:1867,4
DA:1868,4
DA:1869,4
DA:1870,4
DA:1871,4
DA:1873,1
DA:1875,1
DA:1876,2
DA:1877,1
DA:1880,1
DA:1881,1
DA:1882,1
DA:1885,1
DA:1886,1
DA:1887,1
DA:1888,1
DA:1889,1
DA:1890,1
DA:1891,1
DA:1892,1
DA:1893,1
DA:1894,1
DA:1895,1
DA:1896,1
DA:1897,1
DA:1898,1
DA:1899,1
DA:1900,1
DA:1902,1
DA:1903,1
DA:1904,1
DA:1905,1
DA:1907,1
DA:1908,1
DA:1910,1
DA:1911,1
DA:1912,1
DA:1913,1
DA:1916,1
DA:1917,1
DA:1918,1
DA:1919,1
DA:1922,1
DA:1923,1
DA:1925,1
DA:1926,1
DA:1929,1
DA:1930,1
DA:1932,1
DA:1933,1
DA:1936,1
DA:1937,1
DA:1939,1
DA:1940,1
DA:1943,1
DA:1944,1
DA:1946,1
DA:1947,1
DA:1948,1
DA:1951,1
DA:1952,1
DA:1953,1
DA:1955,1
DA:1956,1
DA:1957,1
DA:1958,1
DA:1959,1
DA:1960,1
DA:1963,1
DA:1964,1
DA:1965,1
BRF:0
BRH:0
LF:1366
LH:1200
end_of_record
SF:/home/nathan/Projects/valknut/src/detectors/structure/file.rs
FN:955,_RNvNtNtNtNtCs64AwlgGXCHI_10valknut_rs9detectors9structure4file5tests18create_test_config
FN:1162,_RNvNtNtNtNtCs64AwlgGXCHI_10valknut_rs9detectors9structure4file5testss_15test_is_keyword
FN:999,_RNvNtNtNtNtCs64AwlgGXCHI_10valknut_rs9detectors9structure4file5testss_17test_is_code_file
FN:991,_RNvNtNtNtNtCs64AwlgGXCHI_10valknut_rs9detectors9structure4file5testss_22test_file_analyzer_new
FN:1016,_RNvNtNtNtNtCs64AwlgGXCHI_10valknut_rs9detectors9structure4file5testss_24test_count_lines_of_code
FN:1302,_RNvNtNtNtNtCs64AwlgGXCHI_10valknut_rs9detectors9structure4file5testss_24test_generate_split_name
FN:1544,_RNvNtNtNtNtCs64AwlgGXCHI_10valknut_rs9detectors9structure4file5testss_25test_discover_large_files
FN:1379,_RNvNtNtNtNtCs64AwlgGXCHI_10valknut_rs9detectors9structure4file5testss_25test_extract_rust_imports
FN:1315,_RNvNtNtNtNtCs64AwlgGXCHI_10valknut_rs9detectors9structure4file5testss_26test_calculate_split_value
FN:1116,_RNvNtNtNtNtCs64AwlgGXCHI_10valknut_rs9detectors9structure4file5testss_26test_extract_rust_entities
FN:1038,_RNvNtNtNtNtCs64AwlgGXCHI_10valknut_rs9detectors9structure4file5testss_26test_should_skip_directory
FN:1328,_RNvNtNtNtNtCs64AwlgGXCHI_10valknut_rs9detectors9structure4file5testss_27test_calculate_split_effort
FN:1341,_RNvNtNtNtNtCs64AwlgGXCHI_10valknut_rs9detectors9structure4file5testss_27test_extract_python_imports
FN:1053,_RNvNtNtNtNtCs64AwlgGXCHI_10valknut_rs9detectors9structure4file5testss_28test_extract_python_entities
FN:1148,_RNvNtNtNtNtCs64AwlgGXCHI_10valknut_rs9detectors9structure4file5testss_30test_extract_symbols_from_line
FN:1361,_RNvNtNtNtNtCs64AwlgGXCHI_10valknut_rs9detectors9structure4file5testss_31test_extract_javascript_imports
FN:1082,_RNvNtNtNtNtCs64AwlgGXCHI_10valknut_rs9detectors9structure4file5testss_32test_extract_javascript_entities
FN:1568,_RNvNtNtNtNtCs64AwlgGXCHI_10valknut_rs9detectors9structure4file5testss_33test_extract_imports_by_extension
FN:1396,_RNvNtNtNtNtCs64AwlgGXCHI_10valknut_rs9detectors9structure4file5testss_33test_resolve_import_to_local_file
FN:1241,_RNvNtNtNtNtCs64AwlgGXCHI_10valknut_rs9detectors9structure4file5testss_36test_analyze_entity_names_io_focused
FN:1256,_RNvNtNtNtNtCs64AwlgGXCHI_10valknut_rs9detectors9structure4file5testss_37test_analyze_entity_names_api_focused
FN:1271,_RNvNtNtNtNtCs64AwlgGXCHI_10valknut_rs9detectors9structure4file5testss_38test_analyze_entity_names_util_focused
FN:1452,_RNvNtNtNtNtCs64AwlgGXCHI_10valknut_rs9detectors9structure4file5testss_38test_analyze_file_for_split_large_file
FN:1435,_RNvNtNtNtNtCs64AwlgGXCHI_10valknut_rs9detectors9structure4file5testss_38test_analyze_file_for_split_small_file
FN:1474,_RNvNtNtNtNtCs64AwlgGXCHI_10valknut_rs9detectors9structure4file5testss_38test_build_entity_cohesion_graph_empty
FN:1287,_RNvNtNtNtNtCs64AwlgGXCHI_10valknut_rs9detectors9structure4file5testss_39test_analyze_entity_names_core_fallback
FN:1515,_RNvNtNtNtNtCs64AwlgGXCHI_10valknut_rs9detectors9structure4file5testss_42test_find_cohesion_communities_empty_graph
FN:1418,_RNvNtNtNtNtCs64AwlgGXCHI_10valknut_rs9detectors9structure4file5testss_43test_resolve_import_to_local_file_not_found
FN:1175,_RNvNtNtNtNtCs64AwlgGXCHI_10valknut_rs9detectors9structure4file5testss_44test_calculate_jaccard_similarity_empty_sets
FN:1205,_RNvNtNtNtNtCs64AwlgGXCHI_10valknut_rs9detectors9structure4file5testss_44test_calculate_jaccard_similarity_no_overlap
FN:1490,_RNvNtNtNtNtCs64AwlgGXCHI_10valknut_rs9detectors9structure4file5testss_46test_build_entity_cohesion_graph_with_entities
FN:1187,_RNvNtNtNtNtCs64AwlgGXCHI_10valknut_rs9detectors9structure4file5testss_48test_calculate_jaccard_similarity_identical_sets
FN:1223,_RNvNtNtNtNtCs64AwlgGXCHI_10valknut_rs9detectors9structure4file5testss_49test_calculate_jaccard_similarity_partial_overlap
FN:1527,_RNvNtNtNtNtCs64AwlgGXCHI_10valknut_rs9detectors9structure4file5testss_49test_generate_split_suggestions_empty_communities
FN:1599,_RNvNtNtNtNtCs64AwlgGXCHI_10valknut_rs9detectors9structure4file5testss_52test_collect_large_files_recursive_skips_directories
FN:1544,_RNCNvNtNtNtNtCs64AwlgGXCHI_10valknut_rs9detectors9structure4file5testss_25test_discover_large_files0Bb_
FN:1143,_RNCNvNtNtNtNtCs64AwlgGXCHI_10valknut_rs9detectors9structure4file5testss_26test_extract_rust_entities0Bb_
FN:1144,_RNCNvNtNtNtNtCs64AwlgGXCHI_10valknut_rs9detectors9structure4file5testss_26test_extract_rust_entitiess_0Bb_
FN:1076,_RNCNvNtNtNtNtCs64AwlgGXCHI_10valknut_rs9detectors9structure4file5testss_28test_extract_python_entities0Bb_
FN:1077,_RNCNvNtNtNtNtCs64AwlgGXCHI_10valknut_rs9detectors9structure4file5testss_28test_extract_python_entitiess_0Bb_
FN:1110,_RNCNvNtNtNtNtCs64AwlgGXCHI_10valknut_rs9detectors9structure4file5testss_32test_extract_javascript_entities0Bb_
FN:1111,_RNCNvNtNtNtNtCs64AwlgGXCHI_10valknut_rs9detectors9structure4file5testss_32test_extract_javascript_entitiess_0Bb_
FN:1540,_RNCNvNtNtNtNtCs64AwlgGXCHI_10valknut_rs9detectors9structure4file5testss_49test_generate_split_suggestions_empty_communities0Bb_
FN:687,_RNvMNtNtNtCs64AwlgGXCHI_10valknut_rs9detectors9structure4fileNtB2_12FileAnalyzer10is_keyword
FN:25,_RNvMNtNtNtCs64AwlgGXCHI_10valknut_rs9detectors9structure4fileNtB2_12FileAnalyzer12is_code_file
FN:713,_RNvMNtNtNtCs64AwlgGXCHI_10valknut_rs9detectors9structure4fileNtB2_12FileAnalyzer15extract_imports
FN:30,_RNvMNtNtNtCs64AwlgGXCHI_10valknut_rs9detectors9structure4fileNtB2_12FileAnalyzer19count_lines_of_code
FN:286,_RNvMNtNtNtCs64AwlgGXCHI_10valknut_rs9detectors9structure4fileNtB2_12FileAnalyzer19generate_split_name
FN:302,_RNvMNtNtNtCs64AwlgGXCHI_10valknut_rs9detectors9structure4fileNtB2_12FileAnalyzer20analyze_entity_names
FN:891,_RNvMNtNtNtCs64AwlgGXCHI_10valknut_rs9detectors9structure4fileNtB2_12FileAnalyzer20discover_large_files
FN:820,_RNvMNtNtNtCs64AwlgGXCHI_10valknut_rs9detectors9structure4fileNtB2_12FileAnalyzer20extract_rust_imports
FN:340,_RNvMNtNtNtCs64AwlgGXCHI_10valknut_rs9detectors9structure4fileNtB2_12FileAnalyzer21calculate_split_value
FN:548,_RNvMNtNtNtCs64AwlgGXCHI_10valknut_rs9detectors9structure4fileNtB2_12FileAnalyzer21extract_rust_entities
FN:933,_RNvMNtNtNtCs64AwlgGXCHI_10valknut_rs9detectors9structure4fileNtB2_12FileAnalyzer21should_skip_directory
FN:35,_RNvMNtNtNtCs64AwlgGXCHI_10valknut_rs9detectors9structure4fileNtB2_12FileAnalyzer22analyze_file_for_split
FN:351,_RNvMNtNtNtCs64AwlgGXCHI_10valknut_rs9detectors9structure4fileNtB2_12FileAnalyzer22calculate_split_effort
FN:728,_RNvMNtNtNtCs64AwlgGXCHI_10valknut_rs9detectors9structure4fileNtB2_12FileAnalyzer22extract_python_imports
FN:360,_RNvMNtNtNtCs64AwlgGXCHI_10valknut_rs9detectors9structure4fileNtB2_12FileAnalyzer23extract_python_entities
FN:671,_RNvMNtNtNtCs64AwlgGXCHI_10valknut_rs9detectors9structure4fileNtB2_12FileAnalyzer25extract_symbols_from_line
FN:139,_RNvMNtNtNtCs64AwlgGXCHI_10valknut_rs9detectors9structure4fileNtB2_12FileAnalyzer25find_cohesion_communities
FN:776,_RNvMNtNtNtCs64AwlgGXCHI_10valknut_rs9detectors9structure4fileNtB2_12FileAnalyzer26extract_javascript_imports
FN:232,_RNvMNtNtNtCs64AwlgGXCHI_10valknut_rs9detectors9structure4fileNtB2_12FileAnalyzer26generate_split_suggestions
FN:87,_RNvMNtNtNtCs64AwlgGXCHI_10valknut_rs9detectors9structure4fileNtB2_12FileAnalyzer27build_entity_cohesion_graph
FN:436,_RNvMNtNtNtCs64AwlgGXCHI_10valknut_rs9detectors9structure4fileNtB2_12FileAnalyzer27extract_javascript_entities
FN:697,_RNvMNtNtNtCs64AwlgGXCHI_10valknut_rs9detectors9structure4fileNtB2_12FileAnalyzer28calculate_jaccard_similarity
FN:868,_RNvMNtNtNtCs64AwlgGXCHI_10valknut_rs9detectors9structure4fileNtB2_12FileAnalyzer28resolve_import_to_local_file
FN:898,_RNvMNtNtNtCs64AwlgGXCHI_10valknut_rs9detectors9structure4fileNtB2_12FileAnalyzer29collect_large_files_recursive
FN:20,_RNvMNtNtNtCs64AwlgGXCHI_10valknut_rs9detectors9structure4fileNtB2_12FileAnalyzer3new
FN:675,_RNCNCNvMNtNtNtCs64AwlgGXCHI_10valknut_rs9detectors9structure4fileNtB6_12FileAnalyzer25extract_symbols_from_lines0_00Bc_
FN:716,_RNCNvMNtNtNtCs64AwlgGXCHI_10valknut_rs9detectors9structure4fileNtB4_12FileAnalyzer15extract_imports0Ba_
FN:287,_RNCNvMNtNtNtCs64AwlgGXCHI_10valknut_rs9detectors9structure4fileNtB4_12FileAnalyzer19generate_split_name0Ba_
FN:891,_RNCNvMNtNtNtCs64AwlgGXCHI_10valknut_rs9detectors9structure4fileNtB4_12FileAnalyzer20discover_large_files0Ba_
FN:842,_RNCNvMNtNtNtCs64AwlgGXCHI_10valknut_rs9detectors9structure4fileNtB4_12FileAnalyzer20extract_rust_imports0Ba_
FN:565,_RNCNvMNtNtNtCs64AwlgGXCHI_10valknut_rs9detectors9structure4fileNtB4_12FileAnalyzer21extract_rust_entities0Ba_
FN:566,_RNCNvMNtNtNtCs64AwlgGXCHI_10valknut_rs9detectors9structure4fileNtB4_12FileAnalyzer21extract_rust_entitiess_0Ba_
FN:758,_RNCNvMNtNtNtCs64AwlgGXCHI_10valknut_rs9detectors9structure4fileNtB4_12FileAnalyzer22extract_python_imports0Ba_
FN:673,_RNCNvMNtNtNtCs64AwlgGXCHI_10valknut_rs9detectors9structure4fileNtB4_12FileAnalyzer25extract_symbols_from_line0Ba_
FN:675,_RNCNvMNtNtNtCs64AwlgGXCHI_10valknut_rs9detectors9structure4fileNtB4_12FileAnalyzer25extract_symbols_from_lines0_0Ba_
FN:674,_RNCNvMNtNtNtCs64AwlgGXCHI_10valknut_rs9detectors9structure4fileNtB4_12FileAnalyzer25extract_symbols_from_lines_0Ba_
FN:152,_RNCNvMNtNtNtCs64AwlgGXCHI_10valknut_rs9detectors9structure4fileNtB4_12FileAnalyzer25find_cohesion_communities0Ba_
FN:223,_RNCNvMNtNtNtCs64AwlgGXCHI_10valknut_rs9detectors9structure4fileNtB4_12FileAnalyzer25find_cohesion_communitiess0_0Ba_
FN:160,_RNCNvMNtNtNtCs64AwlgGXCHI_10valknut_rs9detectors9structure4fileNtB4_12FileAnalyzer25find_cohesion_communitiess_0Ba_
FN:799,_RNCNvMNtNtNtCs64AwlgGXCHI_10valknut_rs9detectors9structure4fileNtB4_12FileAnalyzer26extract_javascript_imports0Ba_
FN:240,_RNCNvMNtNtNtCs64AwlgGXCHI_10valknut_rs9detectors9structure4fileNtB4_12FileAnalyzer26generate_split_suggestions0Ba_
FN:275,_RNCNvMNtNtNtCs64AwlgGXCHI_10valknut_rs9detectors9structure4fileNtB4_12FileAnalyzer26generate_split_suggestionss_0Ba_
FN:92,_RNCNvMNtNtNtCs64AwlgGXCHI_10valknut_rs9detectors9structure4fileNtB4_12FileAnalyzer27build_entity_cohesion_graph0Ba_
FN:448,_RNCNvMNtNtNtCs64AwlgGXCHI_10valknut_rs9detectors9structure4fileNtB4_12FileAnalyzer27extract_javascript_entities0Ba_
FN:449,_RNCNvMNtNtNtCs64AwlgGXCHI_10valknut_rs9detectors9structure4fileNtB4_12FileAnalyzer27extract_javascript_entitiess_0Ba_
FN:910,_RNCNvMNtNtNtCs64AwlgGXCHI_10valknut_rs9detectors9structure4fileNtB4_12FileAnalyzer29collect_large_files_recursive0Ba_
FNDA:33,_RNvNtNtNtNtCs64AwlgGXCHI_10valknut_rs9detectors9structure4file5tests18create_test_config
FNDA:1,_RNvNtNtNtNtCs64AwlgGXCHI_10valknut_rs9detectors9structure4file5testss_15test_is_keyword
FNDA:1,_RNvNtNtNtNtCs64AwlgGXCHI_10valknut_rs9detectors9structure4file5testss_17test_is_code_file
FNDA:1,_RNvNtNtNtNtCs64AwlgGXCHI_10valknut_rs9detectors9structure4file5testss_22test_file_analyzer_new
FNDA:1,_RNvNtNtNtNtCs64AwlgGXCHI_10valknut_rs9detectors9structure4file5testss_24test_count_lines_of_code
FNDA:1,_RNvNtNtNtNtCs64AwlgGXCHI_10valknut_rs9detectors9structure4file5testss_24test_generate_split_name
FNDA:1,_RNvNtNtNtNtCs64AwlgGXCHI_10valknut_rs9detectors9structure4file5testss_25test_discover_large_files
FNDA:1,_RNvNtNtNtNtCs64AwlgGXCHI_10valknut_rs9detectors9structure4file5testss_25test_extract_rust_imports
FNDA:1,_RNvNtNtNtNtCs64AwlgGXCHI_10valknut_rs9detectors9structure4file5testss_26test_calculate_split_value
FNDA:1,_RNvNtNtNtNtCs64AwlgGXCHI_10valknut_rs9detectors9structure4file5testss_26test_extract_rust_entities
FNDA:1,_RNvNtNtNtNtCs64AwlgGXCHI_10valknut_rs9detectors9structure4file5testss_26test_should_skip_directory
FNDA:1,_RNvNtNtNtNtCs64AwlgGXCHI_10valknut_rs9detectors9structure4file5testss_27test_calculate_split_effort
FNDA:1,_RNvNtNtNtNtCs64AwlgGXCHI_10valknut_rs9detectors9structure4file5testss_27test_extract_python_imports
FNDA:1,_RNvNtNtNtNtCs64AwlgGXCHI_10valknut_rs9detectors9structure4file5testss_28test_extract_python_entities
FNDA:1,_RNvNtNtNtNtCs64AwlgGXCHI_10valknut_rs9detectors9structure4file5testss_30test_extract_symbols_from_line
FNDA:1,_RNvNtNtNtNtCs64AwlgGXCHI_10valknut_rs9detectors9structure4file5testss_31test_extract_javascript_imports
FNDA:1,_RNvNtNtNtNtCs64AwlgGXCHI_10valknut_rs9detectors9structure4file5testss_32test_extract_javascript_entities
FNDA:1,_RNvNtNtNtNtCs64AwlgGXCHI_10valknut_rs9detectors9structure4file5testss_33test_extract_imports_by_extension
FNDA:1,_RNvNtNtNtNtCs64AwlgGXCHI_10valknut_rs9detectors9structure4file5testss_33test_resolve_import_to_local_file
FNDA:1,_RNvNtNtNtNtCs64AwlgGXCHI_10valknut_rs9detectors9structure4file5testss_36test_analyze_entity_names_io_focused
FNDA:1,_RNvNtNtNtNtCs64AwlgGXCHI_10valknut_rs9detectors9structure4file5testss_37test_analyze_entity_names_api_focused
FNDA:1,_RNvNtNtNtNtCs64AwlgGXCHI_10valknut_rs9detectors9structure4file5testss_38test_analyze_entity_names_util_focused
FNDA:1,_RNvNtNtNtNtCs64AwlgGXCHI_10valknut_rs9detectors9structure4file5testss_38test_analyze_file_for_split_large_file
FNDA:1,_RNvNtNtNtNtCs64AwlgGXCHI_10valknut_rs9detectors9structure4file5testss_38test_analyze_file_for_split_small_file
FNDA:1,_RNvNtNtNtNtCs64AwlgGXCHI_10valknut_rs9detectors9structure4file5testss_38test_build_entity_cohesion_graph_empty
FNDA:1,_RNvNtNtNtNtCs64AwlgGXCHI_10valknut_rs9detectors9structure4file5testss_39test_analyze_entity_names_core_fallback
FNDA:1,_RNvNtNtNtNtCs64AwlgGXCHI_10valknut_rs9detectors9structure4file5testss_42test_find_cohesion_communities_empty_graph
FNDA:1,_RNvNtNtNtNtCs64AwlgGXCHI_10valknut_rs9detectors9structure4file5testss_43test_resolve_import_to_local_file_not_found
FNDA:1,_RNvNtNtNtNtCs64AwlgGXCHI_10valknut_rs9detectors9structure4file5testss_44test_calculate_jaccard_similarity_empty_sets
FNDA:1,_RNvNtNtNtNtCs64AwlgGXCHI_10valknut_rs9detectors9structure4file5testss_44test_calculate_jaccard_similarity_no_overlap
FNDA:1,_RNvNtNtNtNtCs64AwlgGXCHI_10valknut_rs9detectors9structure4file5testss_46test_build_entity_cohesion_graph_with_entities
FNDA:1,_RNvNtNtNtNtCs64AwlgGXCHI_10valknut_rs9detectors9structure4file5testss_48test_calculate_jaccard_similarity_identical_sets
FNDA:1,_RNvNtNtNtNtCs64AwlgGXCHI_10valknut_rs9detectors9structure4file5testss_49test_calculate_jaccard_similarity_partial_overlap
FNDA:1,_RNvNtNtNtNtCs64AwlgGXCHI_10valknut_rs9detectors9structure4file5testss_49test_generate_split_suggestions_empty_communities
FNDA:1,_RNvNtNtNtNtCs64AwlgGXCHI_10valknut_rs9detectors9structure4file5testss_52test_collect_large_files_recursive_skips_directories
FNDA:1,_RNCNvNtNtNtNtCs64AwlgGXCHI_10valknut_rs9detectors9structure4file5testss_25test_discover_large_files0Bb_
FNDA:1,_RNCNvNtNtNtNtCs64AwlgGXCHI_10valknut_rs9detectors9structure4file5testss_26test_extract_rust_entities0Bb_
FNDA:5,_RNCNvNtNtNtNtCs64AwlgGXCHI_10valknut_rs9detectors9structure4file5testss_26test_extract_rust_entitiess_0Bb_
FNDA:1,_RNCNvNtNtNtNtCs64AwlgGXCHI_10valknut_rs9detectors9structure4file5testss_28test_extract_python_entities0Bb_
FNDA:1,_RNCNvNtNtNtNtCs64AwlgGXCHI_10valknut_rs9detectors9structure4file5testss_28test_extract_python_entitiess_0Bb_
FNDA:1,_RNCNvNtNtNtNtCs64AwlgGXCHI_10valknut_rs9detectors9structure4file5testss_32test_extract_javascript_entities0Bb_
FNDA:1,_RNCNvNtNtNtNtCs64AwlgGXCHI_10valknut_rs9detectors9structure4file5testss_32test_extract_javascript_entitiess_0Bb_
FNDA:2,_RNCNvNtNtNtNtCs64AwlgGXCHI_10valknut_rs9detectors9structure4file5testss_49test_generate_split_suggestions_empty_communities0Bb_
FNDA:137,_RNvMNtNtNtCs64AwlgGXCHI_10valknut_rs9detectors9structure4fileNtB2_12FileAnalyzer10is_keyword
FNDA:15,_RNvMNtNtNtCs64AwlgGXCHI_10valknut_rs9detectors9structure4fileNtB2_12FileAnalyzer12is_code_file
FNDA:4,_RNvMNtNtNtCs64AwlgGXCHI_10valknut_rs9detectors9structure4fileNtB2_12FileAnalyzer15extract_imports
FNDA:8,_RNvMNtNtNtCs64AwlgGXCHI_10valknut_rs9detectors9structure4fileNtB2_12FileAnalyzer19count_lines_of_code
FNDA:1,_RNvMNtNtNtCs64AwlgGXCHI_10valknut_rs9detectors9structure4fileNtB2_12FileAnalyzer19generate_split_name
FNDA:5,_RNvMNtNtNtCs64AwlgGXCHI_10valknut_rs9detectors9structure4fileNtB2_12FileAnalyzer20analyze_entity_names
FNDA:5,_RNvMNtNtNtCs64AwlgGXCHI_10valknut_rs9detectors9structure4fileNtB2_12FileAnalyzer20discover_large_files
FNDA:2,_RNvMNtNtNtCs64AwlgGXCHI_10valknut_rs9detectors9structure4fileNtB2_12FileAnalyzer20extract_rust_imports
FNDA:1,_RNvMNtNtNtCs64AwlgGXCHI_10valknut_rs9detectors9structure4fileNtB2_12FileAnalyzer21calculate_split_value
FNDA:1,_RNvMNtNtNtCs64AwlgGXCHI_10valknut_rs9detectors9structure4fileNtB2_12FileAnalyzer21extract_rust_entities
FNDA:15,_RNvMNtNtNtCs64AwlgGXCHI_10valknut_rs9detectors9structure4fileNtB2_12FileAnalyzer21should_skip_directory
FNDA:2,_RNvMNtNtNtCs64AwlgGXCHI_10valknut_rs9detectors9structure4fileNtB2_12FileAnalyzer22analyze_file_for_split
FNDA:1,_RNvMNtNtNtCs64AwlgGXCHI_10valknut_rs9detectors9structure4fileNtB2_12FileAnalyzer22calculate_split_effort
FNDA:2,_RNvMNtNtNtCs64AwlgGXCHI_10valknut_rs9detectors9structure4fileNtB2_12FileAnalyzer22extract_python_imports
FNDA:5,_RNvMNtNtNtCs64AwlgGXCHI_10valknut_rs9detectors9structure4fileNtB2_12FileAnalyzer23extract_python_entities
FNDA:68,_RNvMNtNtNtCs64AwlgGXCHI_10valknut_rs9detectors9structure4fileNtB2_12FileAnalyzer25extract_symbols_from_line
FNDA:2,_RNvMNtNtNtCs64AwlgGXCHI_10valknut_rs9detectors9structure4fileNtB2_12FileAnalyzer25find_cohesion_communities
FNDA:2,_RNvMNtNtNtCs64AwlgGXCHI_10valknut_rs9detectors9structure4fileNtB2_12FileAnalyzer26extract_javascript_imports
FNDA:1,_RNvMNtNtNtCs64AwlgGXCHI_10valknut_rs9detectors9structure4fileNtB2_12FileAnalyzer26generate_split_suggestions
FNDA:4,_RNvMNtNtNtCs64AwlgGXCHI_10valknut_rs9detectors9structure4fileNtB2_12FileAnalyzer27build_entity_cohesion_graph
FNDA:1,_RNvMNtNtNtCs64AwlgGXCHI_10valknut_rs9detectors9structure4fileNtB2_12FileAnalyzer27extract_javascript_entities
FNDA:109,_RNvMNtNtNtCs64AwlgGXCHI_10valknut_rs9detectors9structure4fileNtB2_12FileAnalyzer28calculate_jaccard_similarity
FNDA:2,_RNvMNtNtNtCs64AwlgGXCHI_10valknut_rs9detectors9structure4fileNtB2_12FileAnalyzer28resolve_import_to_local_file
FNDA:7,_RNvMNtNtNtCs64AwlgGXCHI_10valknut_rs9detectors9structure4fileNtB2_12FileAnalyzer29collect_large_files_recursive
FNDA:56,_RNvMNtNtNtCs64AwlgGXCHI_10valknut_rs9detectors9structure4fileNtB2_12FileAnalyzer3new
FNDA:128,_RNCNCNvMNtNtNtCs64AwlgGXCHI_10valknut_rs9detectors9structure4fileNtB6_12FileAnalyzer25extract_symbols_from_lines0_00Bc_
FNDA:4,_RNCNvMNtNtNtCs64AwlgGXCHI_10valknut_rs9detectors9structure4fileNtB4_12FileAnalyzer15extract_imports0Ba_
FNDA:1,_RNCNvMNtNtNtCs64AwlgGXCHI_10valknut_rs9detectors9structure4fileNtB4_12FileAnalyzer19generate_split_name0Ba_
FNDA:5,_RNCNvMNtNtNtCs64AwlgGXCHI_10valknut_rs9detectors9structure4fileNtB4_12FileAnalyzer20discover_large_files0Ba_
FNDA:4,_RNCNvMNtNtNtCs64AwlgGXCHI_10valknut_rs9detectors9structure4fileNtB4_12FileAnalyzer20extract_rust_imports0Ba_
FNDA:192,_RNCNvMNtNtNtCs64AwlgGXCHI_10valknut_rs9detectors9structure4fileNtB4_12FileAnalyzer21extract_rust_entities0Ba_
FNDA:192,_RNCNvMNtNtNtCs64AwlgGXCHI_10valknut_rs9detectors9structure4fileNtB4_12FileAnalyzer21extract_rust_entitiess_0Ba_
FNDA:3,_RNCNvMNtNtNtCs64AwlgGXCHI_10valknut_rs9detectors9structure4fileNtB4_12FileAnalyzer22extract_python_imports0Ba_
FNDA:935,_RNCNvMNtNtNtCs64AwlgGXCHI_10valknut_rs9detectors9structure4fileNtB4_12FileAnalyzer25extract_symbols_from_line0Ba_
FNDA:128,_RNCNvMNtNtNtCs64AwlgGXCHI_10valknut_rs9detectors9structure4fileNtB4_12FileAnalyzer25extract_symbols_from_lines0_0Ba_
FNDA:318,_RNCNvMNtNtNtCs64AwlgGXCHI_10valknut_rs9detectors9structure4fileNtB4_12FileAnalyzer25extract_symbols_from_lines_0Ba_
FNDA:105,_RNCNvMNtNtNtCs64AwlgGXCHI_10valknut_rs9detectors9structure4fileNtB4_12FileAnalyzer25find_cohesion_communities0Ba_
FNDA:1,_RNCNvMNtNtNtCs64AwlgGXCHI_10valknut_rs9detectors9structure4fileNtB4_12FileAnalyzer25find_cohesion_communitiess0_0Ba_
FNDA:104,_RNCNvMNtNtNtCs64AwlgGXCHI_10valknut_rs9detectors9structure4fileNtB4_12FileAnalyzer25find_cohesion_communitiess_0Ba_
FNDA:2,_RNCNvMNtNtNtCs64AwlgGXCHI_10valknut_rs9detectors9structure4fileNtB4_12FileAnalyzer26extract_javascript_imports0Ba_
FNDA:1,_RNCNvMNtNtNtCs64AwlgGXCHI_10valknut_rs9detectors9structure4fileNtB4_12FileAnalyzer26generate_split_suggestions0Ba_
FNDA:2,_RNCNvMNtNtNtCs64AwlgGXCHI_10valknut_rs9detectors9structure4fileNtB4_12FileAnalyzer26generate_split_suggestionss_0Ba_
FNDA:4,_RNCNvMNtNtNtCs64AwlgGXCHI_10valknut_rs9detectors9structure4fileNtB4_12FileAnalyzer27build_entity_cohesion_graph0Ba_
FNDA:171,_RNCNvMNtNtNtCs64AwlgGXCHI_10valknut_rs9detectors9structure4fileNtB4_12FileAnalyzer27extract_javascript_entities0Ba_
FNDA:171,_RNCNvMNtNtNtCs64AwlgGXCHI_10valknut_rs9detectors9structure4fileNtB4_12FileAnalyzer27extract_javascript_entitiess_0Ba_
FNDA:5,_RNCNvMNtNtNtCs64AwlgGXCHI_10valknut_rs9detectors9structure4fileNtB4_12FileAnalyzer29collect_large_files_recursive0Ba_
FNF:89
FNH:89
DA:20,56
DA:21,56
DA:22,56
DA:25,15
DA:26,15
DA:27,15
DA:30,8
DA:31,8
DA:32,8
DA:35,2
DA:36,2
DA:37,2
DA:38,2
DA:41,2
DA:43,2
DA:44,1
DA:45,1
DA:47,1
DA:49,1
DA:50,1
DA:51,1
DA:53,1
DA:54,0
DA:55,1
DA:58,1
DA:59,1
DA:61,1
DA:62,0
DA:63,0
DA:64,1
DA:68,0
DA:71,0
DA:72,0
DA:74,0
DA:75,0
DA:76,0
DA:77,0
DA:78,0
DA:79,0
DA:80,0
DA:81,0
DA:83,0
DA:84,2
DA:87,4
DA:88,4
DA:89,4
DA:92,4
DA:93,4
DA:94,4
DA:95,0
DA:96,0
DA:97,0
DA:100,0
DA:103,4
DA:104,3
DA:105,1
DA:108,1
DA:109,16
DA:110,15
DA:111,15
DA:112,15
DA:115,15
DA:116,105
DA:117,105
DA:118,105
DA:120,105
DA:123,105
DA:124,105
DA:125,105
DA:126,105
DA:127,105
DA:128,105
DA:129,105
DA:130,105
DA:131,105
DA:135,1
DA:136,4
DA:139,2
DA:140,2
DA:142,2
DA:143,1
DA:144,1
DA:147,1
DA:148,1
DA:151,1
DA:152,105
DA:153,105
DA:154,105
DA:155,105
DA:156,105
DA:157,1
DA:160,104
DA:163,106
DA:164,105
DA:165,0
DA:166,105
DA:169,105
DA:170,105
DA:172,105
DA:173,104
DA:174,104
DA:175,104
DA:176,104
DA:177,91
DA:178,91
DA:181,105
DA:182,13
DA:183,13
DA:184,13
DA:185,13
DA:186,13
DA:188,0
DA:189,0
DA:190,0
DA:191,0
DA:192,0
DA:196,1
DA:197,1
DA:198,1
DA:199,1
DA:200,1
DA:201,1
DA:202,1
DA:203,1
DA:204,1
DA:205,1
DA:206,1
DA:207,1
DA:209,91
DA:210,91
DA:211,91
DA:216,16
DA:217,15
DA:218,0
DA:219,15
DA:223,1
DA:226,1
DA:228,1
DA:229,2
DA:232,1
DA:233,1
DA:234,1
DA:235,1
DA:236,1
DA:237,1
DA:239,1
DA:240,1
DA:241,1
DA:243,1
DA:244,1
DA:246,1
DA:247,0
DA:249,0
DA:250,0
DA:253,0
DA:254,0
DA:255,0
DA:256,0
DA:257,0
DA:261,0
DA:263,0
DA:264,0
DA:265,0
DA:266,0
DA:267,0
DA:271,1
DA:272,2
DA:273,2
DA:274,2
DA:275,2
DA:276,2
DA:280,0
DA:282,1
DA:283,1
DA:286,1
DA:287,1
DA:290,1
DA:292,1
DA:293,1
DA:295,0
DA:298,1
DA:299,1
DA:302,5
DA:303,5
DA:304,5
DA:305,5
DA:306,5
DA:308,19
DA:309,14
DA:311,14
DA:312,10
DA:313,9
DA:314,7
DA:315,7
DA:316,6
DA:317,5
DA:318,2
DA:319,5
DA:320,4
DA:321,1
DA:322,4
DA:323,4
DA:324,4
DA:328,5
DA:329,3
DA:330,2
DA:331,1
DA:332,1
DA:333,0
DA:335,1
DA:337,5
DA:340,1
DA:341,1
DA:342,1
DA:343,1
DA:345,1
DA:347,1
DA:348,1
DA:351,1
DA:353,1
DA:354,1
DA:355,1
DA:356,1
DA:357,1
DA:360,5
DA:361,5
DA:362,5
DA:363,5
DA:364,5
DA:366,83
DA:367,83
DA:370,83
DA:372,1
DA:373,0
DA:374,0
DA:375,0
DA:376,1
DA:379,1
DA:380,1
DA:381,1
DA:382,1
DA:383,1
DA:384,1
DA:385,1
DA:386,1
DA:387,1
DA:388,1
DA:389,1
DA:390,82
DA:392,35
DA:393,19
DA:394,16
DA:395,16
DA:396,16
DA:397,16
DA:398,16
DA:399,16
DA:400,16
DA:401,3
DA:404,16
DA:405,16
DA:406,16
DA:407,16
DA:408,16
DA:409,16
DA:410,16
DA:411,16
DA:412,16
DA:413,16
DA:414,16
DA:416,47
DA:419,83
DA:420,40
DA:421,40
DA:422,43
DA:426,5
DA:427,1
DA:428,1
DA:429,1
DA:430,4
DA:432,5
DA:433,5
DA:436,1
DA:437,1
DA:438,1
DA:439,1
DA:440,1
DA:441,1
DA:442,1
DA:444,18
DA:445,18
DA:448,171
DA:449,171
DA:452,18
DA:454,1
DA:455,1
DA:456,1
DA:457,1
DA:460,1
DA:461,0
DA:462,0
DA:463,0
DA:464,1
DA:466,1
DA:467,1
DA:468,1
DA:469,1
DA:470,1
DA:471,1
DA:472,1
DA:473,1
DA:474,1
DA:475,1
DA:476,0
DA:477,0
DA:478,17
DA:479,16
DA:480,16
DA:481,15
DA:484,2
DA:486,2
DA:487,1
DA:488,1
DA:489,1
DA:490,1
DA:491,1
DA:492,1
DA:493,1
DA:494,1
DA:495,1
DA:496,0
DA:497,0
DA:499,2
DA:500,0
DA:501,0
DA:502,0
DA:503,0
DA:504,0
DA:505,0
DA:506,0
DA:507,0
DA:508,0
DA:509,0
DA:510,0
DA:511,2
DA:512,15
DA:514,18
DA:515,17
DA:518,17
DA:519,14
DA:520,14
DA:521,14
DA:524,17
DA:525,0
DA:526,0
DA:527,0
DA:528,0
DA:529,0
DA:530,0
DA:531,0
DA:532,0
DA:533,17
DA:534,1
DA:538,1
DA:539,1
DA:540,1
DA:541,1
DA:542,1
DA:544,1
DA:545,1
DA:548,1
DA:549,1
DA:550,1
DA:551,1
DA:552,1
DA:553,1
DA:554,1
DA:556,18
DA:557,18
DA:560,18
DA:561,0
DA:562,18
DA:565,192
DA:566,192
DA:569,18
DA:570,1
DA:571,1
DA:574,1
DA:575,0
DA:576,0
DA:577,0
DA:578,1
DA:580,1
DA:581,1
DA:582,1
DA:583,1
DA:584,1
DA:585,1
DA:586,1
DA:587,1
DA:588,1
DA:589,1
DA:590,0
DA:591,17
DA:592,3
DA:593,3
DA:596,3
DA:597,1
DA:598,1
DA:599,1
DA:600,2
DA:602,3
DA:603,3
DA:604,3
DA:605,3
DA:606,3
DA:607,3
DA:608,3
DA:609,3
DA:610,3
DA:611,3
DA:612,0
DA:613,14
DA:614,1
DA:615,1
DA:618,1
DA:619,0
DA:620,0
DA:621,0
DA:622,1
DA:624,1
DA:625,1
DA:626,1
DA:627,1
DA:628,1
DA:629,1
DA:630,1
DA:631,1
DA:632,1
DA:633,1
DA:634,0
DA:635,13
DA:637,18
DA:638,13
DA:641,13
DA:642,13
DA:643,13
DA:644,13
DA:647,13
DA:648,4
DA:649,4
DA:650,4
DA:651,4
DA:652,4
DA:653,4
DA:654,4
DA:655,4
DA:656,9
DA:657,5
DA:661,1
DA:662,0
DA:663,0
DA:664,0
DA:665,1
DA:667,1
DA:668,1
DA:671,68
DA:673,935
DA:674,318
DA:675,128
DA:676,68
DA:678,196
DA:680,128
DA:681,73
DA:682,73
DA:684,68
DA:687,137
DA:688,137
DA:689,137
DA:690,109
DA:691,81
DA:692,68
DA:694,137
DA:697,109
DA:698,109
DA:699,1
DA:700,108
DA:702,108
DA:703,108
DA:705,108
DA:706,0
DA:708,108
DA:710,109
DA:713,4
DA:714,4
DA:715,4
DA:716,4
DA:717,4
DA:719,4
DA:720,4
DA:721,3
DA:722,2
DA:723,1
DA:725,4
DA:728,2
DA:729,2
DA:731,5
DA:732,5
DA:735,5
DA:736,0
DA:737,5
DA:739,5
DA:740,3
DA:741,3
DA:742,3
DA:743,3
DA:744,3
DA:745,3
DA:746,3
DA:747,3
DA:748,3
DA:750,2
DA:751,2
DA:752,2
DA:754,2
DA:755,0
DA:757,2
DA:758,3
DA:759,2
DA:762,2
DA:763,2
DA:764,2
DA:765,2
DA:766,2
DA:768,0
DA:769,0
DA:772,2
DA:773,2
DA:776,2
DA:777,2
DA:779,4
DA:780,4
DA:783,4
DA:784,0
DA:785,4
DA:787,4
DA:789,4
DA:790,4
DA:791,4
DA:793,4
DA:794,1
DA:795,3
DA:797,1
DA:798,1
DA:799,2
DA:800,1
DA:803,2
DA:806,4
DA:807,4
DA:808,4
DA:809,4
DA:810,4
DA:812,0
DA:813,0
DA:816,2
DA:817,2
DA:820,2
DA:821,2
DA:823,4
DA:824,4
DA:827,4
DA:828,0
DA:829,4
DA:831,4
DA:832,4
DA:834,4
DA:836,2
DA:837,2
DA:839,2
DA:840,2
DA:841,2
DA:842,4
DA:843,2
DA:845,2
DA:846,2
DA:847,2
DA:848,2
DA:849,2
DA:850,2
DA:851,0
DA:852,2
DA:853,2
DA:854,2
DA:855,2
DA:856,2
DA:857,2
DA:858,2
DA:859,2
DA:860,2
DA:861,0
DA:864,2
DA:865,2
DA:868,2
DA:870,2
DA:873,2
DA:874,0
DA:875,2
DA:878,2
DA:880,8
DA:881,7
DA:882,7
DA:883,1
DA:884,6
DA:887,1
DA:888,2
DA:891,5
DA:892,5
DA:893,5
DA:894,5
DA:895,5
DA:898,7
DA:899,7
DA:900,1
DA:901,6
DA:903,6
DA:904,6
DA:905,6
DA:907,6
DA:908,1
DA:909,5
DA:910,5
DA:911,5
DA:912,5
DA:913,5
DA:915,5
DA:916,0
DA:917,0
DA:919,5
DA:920,5
DA:921,1
DA:922,4
DA:924,0
DA:925,0
DA:926,0
DA:929,6
DA:930,7
DA:933,15
DA:934,15
DA:937,15
DA:938,13
DA:939,12
DA:940,11
DA:941,10
DA:942,9
DA:943,15
DA:955,33
DA:956,33
DA:957,33
DA:958,33
DA:959,33
DA:960,33
DA:961,33
DA:962,33
DA:963,33
DA:964,33
DA:965,33
DA:966,33
DA:967,33
DA:968,33
DA:969,33
DA:970,33
DA:971,33
DA:972,33
DA:973,33
DA:974,33
DA:975,33
DA:976,33
DA:977,33
DA:978,33
DA:979,33
DA:980,33
DA:981,33
DA:982,33
DA:983,33
DA:984,33
DA:985,33
DA:986,33
DA:987,33
DA:988,33
DA:991,1
DA:992,1
DA:993,1
DA:995,1
DA:996,1
DA:999,1
DA:1000,1
DA:1001,1
DA:1003,1
DA:1004,1
DA:1005,1
DA:1006,1
DA:1007,1
DA:1008,1
DA:1009,1
DA:1010,1
DA:1011,1
DA:1012,1
DA:1013,1
DA:1016,1
DA:1017,1
DA:1018,1
DA:1020,1
DA:1021,1
DA:1022,1
DA:1023,1
DA:1024,1
DA:1025,1
DA:1026,1
DA:1027,1
DA:1028,1
DA:1030,1
DA:1031,1
DA:1032,1
DA:1034,1
DA:1035,1
DA:1038,1
DA:1039,1
DA:1040,1
DA:1042,1
DA:1043,1
DA:1044,1
DA:1045,1
DA:1046,1
DA:1047,1
DA:1048,1
DA:1049,1
DA:1050,1
DA:1053,1
DA:1054,1
DA:1055,1
DA:1057,1
DA:1058,1
DA:1059,1
DA:1060,1
DA:1061,1
DA:1062,1
DA:1063,1
DA:1064,1
DA:1065,1
DA:1066,1
DA:1067,1
DA:1068,1
DA:1069,1
DA:1070,1
DA:1072,1
DA:1074,1
DA:1076,1
DA:1077,1
DA:1078,1
DA:1079,1
DA:1082,1
DA:1083,1
DA:1084,1
DA:1086,1
DA:1087,1
DA:1088,1
DA:1089,1
DA:1090,1
DA:1091,1
DA:1092,1
DA:1093,1
DA:1094,1
DA:1095,1
DA:1096,1
DA:1097,1
DA:1098,1
DA:1099,1
DA:1100,1
DA:1101,1
DA:1102,1
DA:1103,1
DA:1104,1
DA:1106,1
DA:1108,1
DA:1110,1
DA:1111,1
DA:1112,1
DA:1113,1
DA:1116,1
DA:1117,1
DA:1118,1
DA:1120,1
DA:1121,1
DA:1122,1
DA:1123,1
DA:1124,1
DA:1125,1
DA:1126,1
DA:1127,1
DA:1128,1
DA:1129,1
DA:1130,1
DA:1131,1
DA:1132,1
DA:1133,1
DA:1134,1
DA:1135,1
DA:1136,1
DA:1137,1
DA:1138,1
DA:1140,1
DA:1142,1
DA:1143,1
DA:1144,5
DA:1145,1
DA:1148,1
DA:1149,1
DA:1150,1
DA:1152,1
DA:1153,1
DA:1155,1
DA:1156,1
DA:1157,1
DA:1158,1
DA:1159,1
DA:1162,1
DA:1163,1
DA:1164,1
DA:1165,1
DA:1166,1
DA:1167,1
DA:1168,1
DA:1169,1
DA:1170,1
DA:1171,1
DA:1172,1
DA:1175,1
DA:1176,1
DA:1177,1
DA:1179,1
DA:1180,1
DA:1181,1
DA:1183,1
DA:1184,1
DA:1187,1
DA:1188,1
DA:1189,1
DA:1191,1
DA:1192,1
DA:1193,1
DA:1195,1
DA:1196,1
DA:1197,1
DA:1199,1
DA:1201,1
DA:1202,1
DA:1205,1
DA:1206,1
DA:1207,1
DA:1209,1
DA:1210,1
DA:1211,1
DA:1213,1
DA:1214,1
DA:1215,1
DA:1217,1
DA:1219,1
DA:1220,1
DA:1223,1
DA:1224,1
DA:1225,1
DA:1227,1
DA:1228,1
DA:1229,1
DA:1231,1
DA:1232,1
DA:1233,1
DA:1235,1
DA:1237,1
DA:1238,1
DA:1241,1
DA:1242,1
DA:1243,1
DA:1245,1
DA:1246,1
DA:1247,1
DA:1248,1
DA:1251,1
DA:1252,1
DA:1253,1
DA:1256,1
DA:1257,1
DA:1258,1
DA:1260,1
DA:1261,1
DA:1262,1
DA:1263,1
DA:1266,1
DA:1267,1
DA:1268,1
DA:1271,1
DA:1272,1
DA:1273,1
DA:1275,1
DA:1276,1
DA:1277,1
DA:1278,1
DA:1281,1
DA:1283,1
DA:1284,1
DA:1287,1
DA:1288,1
DA:1289,1
DA:1291,1
DA:1292,1
DA:1293,1
DA:1294,1
DA:1297,1
DA:1298,1
DA:1299,1
DA:1302,1
DA:1303,1
DA:1304,1
DA:1305,1
DA:1306,1
DA:1308,1
DA:1309,1
DA:1311,1
DA:1312,1
DA:1315,1
DA:1316,1
DA:1317,1
DA:1318,1
DA:1319,1
DA:1321,1
DA:1323,1
DA:1324,1
DA:1325,1
DA:1328,1
DA:1329,1
DA:1330,1
DA:1331,1
DA:1332,1
DA:1334,1
DA:1336,1
DA:1337,1
DA:1338,1
DA:1341,1
DA:1342,1
DA:1343,1
DA:1345,1
DA:1346,1
DA:1347,1
DA:1348,1
DA:1349,1
DA:1351,1
DA:1353,1
DA:1354,1
DA:1355,1
DA:1356,1
DA:1357,1
DA:1358,1
DA:1361,1
DA:1362,1
DA:1363,1
DA:1365,1
DA:1366,1
DA:1367,1
DA:1368,1
DA:1370,1
DA:1372,1
DA:1373,1
DA:1374,1
DA:1375,1
DA:1376,1
DA:1379,1
DA:1380,1
DA:1381,1
DA:1383,1
DA:1384,1
DA:1385,1
DA:1386,1
DA:1388,1
DA:1390,1
DA:1391,1
DA:1392,1
DA:1393,1
DA:1396,1
DA:1397,1
DA:1398,1
DA:1399,1
DA:1402,1
DA:1404,1
DA:1405,1
DA:1406,1
DA:1407,1
DA:1408,1
DA:1409,1
DA:1411,1
DA:1413,1
DA:1414,1
DA:1415,1
DA:1418,1
DA:1419,1
DA:1420,1
DA:1421,1
DA:1423,1
DA:1424,1
DA:1425,1
DA:1426,1
DA:1427,1
DA:1428,1
DA:1430,1
DA:1431,1
DA:1432,1
DA:1435,1
DA:1436,1
DA:1437,1
DA:1439,1
DA:1440,1
DA:1442,1
DA:1443,1
DA:1445,1
DA:1448,1
DA:1449,1
DA:1452,1
DA:1453,1
DA:1454,1
DA:1457,1
DA:1458,1
DA:1460,1
DA:1461,1
DA:1463,1
DA:1466,1
DA:1467,0
DA:1468,0
DA:1469,0
DA:1470,1
DA:1471,1
DA:1474,1
DA:1475,1
DA:1476,1
DA:1478,1
DA:1480,1
DA:1481,1
DA:1483,1
DA:1486,1
DA:1487,1
DA:1490,1
DA:1491,1
DA:1492,1
DA:1494,1
DA:1495,1
DA:1496,1
DA:1497,1
DA:1498,1
DA:1499,1
DA:1500,1
DA:1501,1
DA:1502,1
DA:1503,1
DA:1505,1
DA:1506,1
DA:1508,1
DA:1511,1
DA:1512,1
DA:1515,1
DA:1516,1
DA:1517,1
DA:1519,1
DA:1520,1
DA:1522,1
DA:1523,1
DA:1524,1
DA:1527,1
DA:1528,1
DA:1529,1
DA:1530,1
DA:1532,1
DA:1533,1
DA:1535,1
DA:1536,1
DA:1539,1
DA:1540,2
DA:1541,1
DA:1544,1
DA:1545,1
DA:1546,1
DA:1549,1
DA:1550,1
DA:1551,1
DA:1554,1
DA:1555,1
DA:1557,1
DA:1558,1
DA:1560,1
DA:1563,1
DA:1564,1
DA:1565,1
DA:1568,1
DA:1569,1
DA:1570,1
DA:1571,1
DA:1574,1
DA:1575,1
DA:1576,1
DA:1577,1
DA:1580,1
DA:1581,1
DA:1582,1
DA:1583,1
DA:1586,1
DA:1587,1
DA:1588,1
DA:1589,1
DA:1592,1
DA:1593,1
DA:1594,1
DA:1595,1
DA:1596,1
DA:1599,1
DA:1600,1
DA:1601,1
DA:1604,1
DA:1605,1
DA:1606,1
DA:1607,1
DA:1608,1
DA:1610,1
DA:1611,1
DA:1613,1
DA:1614,1
DA:1617,1
DA:1618,1
BRF:0
BRH:0
LF:1164
LH:1059
end_of_record
SF:/home/nathan/Projects/valknut/src/detectors/structure/mod.rs
FN:42,_RNvMNtNtCs64AwlgGXCHI_10valknut_rs9detectors9structureNtB2_24StructureRecommendations3len
FN:47,_RNvMNtNtCs64AwlgGXCHI_10valknut_rs9detectors9structureNtB2_24StructureRecommendations8is_empty
FN:234,_RNvMs1_NtNtCs64AwlgGXCHI_10valknut_rs9detectors9structureNtB5_18StructureExtractor17calculate_entropy
FN:224,_RNvMs1_NtNtCs64AwlgGXCHI_10valknut_rs9detectors9structureNtB5_18StructureExtractor22analyze_file_for_split
FN:229,_RNvMs1_NtNtCs64AwlgGXCHI_10valknut_rs9detectors9structureNtB5_18StructureExtractor26calculate_gini_coefficient
FN:219,_RNvMs1_NtNtCs64AwlgGXCHI_10valknut_rs9detectors9structureNtB5_18StructureExtractor27analyze_directory_for_reorg
FN:214,_RNvMs1_NtNtCs64AwlgGXCHI_10valknut_rs9detectors9structureNtB5_18StructureExtractor27calculate_directory_metrics
FN:239,_RNvMs1_NtNtCs64AwlgGXCHI_10valknut_rs9detectors9structureNtB5_18StructureExtractor35calculate_size_normalization_factor
FN:92,_RNvMs1_NtNtCs64AwlgGXCHI_10valknut_rs9detectors9structureNtB5_18StructureExtractor3new
FN:86,_RNvXs0_NtNtCs64AwlgGXCHI_10valknut_rs9detectors9structureNtB5_18StructureExtractorNtNtCs66KPHxksi63_4core7default7Default7default
FN:246,_RNvXs3_NtNtCs64AwlgGXCHI_10valknut_rs9detectors9structureNtB5_18StructureExtractorNtNtNtB9_4core10featureset16FeatureExtractor4name
FN:254,_RNvXs3_NtNtCs64AwlgGXCHI_10valknut_rs9detectors9structureNtB5_18StructureExtractorNtNtNtB9_4core10featureset16FeatureExtractor7extract
FN:250,_RNvXs3_NtNtCs64AwlgGXCHI_10valknut_rs9detectors9structureNtB5_18StructureExtractorNtNtNtB9_4core10featureset16FeatureExtractor8features
FN:157,_RNCNCNvMs1_NtNtCs64AwlgGXCHI_10valknut_rs9detectors9structureNtB9_18StructureExtractor24generate_recommendations00Bd_
FN:164,_RNCNCNvMs1_NtNtCs64AwlgGXCHI_10valknut_rs9detectors9structureNtB9_18StructureExtractor24generate_recommendations0s_0Bd_
FN:205,_RNCNCNvMs1_NtNtCs64AwlgGXCHI_10valknut_rs9detectors9structureNtB9_18StructureExtractor25generate_file_split_packs00Bd_
FN:187,_RNCNCNvMs1_NtNtCs64AwlgGXCHI_10valknut_rs9detectors9structureNtB9_18StructureExtractor27generate_branch_reorg_packs00Bd_
FN:146,_RNCNvMs1_NtNtCs64AwlgGXCHI_10valknut_rs9detectors9structureNtB7_18StructureExtractor24generate_recommendations0Bb_
FN:196,_RNCNvMs1_NtNtCs64AwlgGXCHI_10valknut_rs9detectors9structureNtB7_18StructureExtractor25generate_file_split_packs0Bb_
FN:178,_RNCNvMs1_NtNtCs64AwlgGXCHI_10valknut_rs9detectors9structureNtB7_18StructureExtractor27generate_branch_reorg_packs0Bb_
FN:97,_RNvMs1_NtNtCs64AwlgGXCHI_10valknut_rs9detectors9structureNtB5_18StructureExtractor11with_config
FN:112,_RNvMs1_NtNtCs64AwlgGXCHI_10valknut_rs9detectors9structureNtB5_18StructureExtractor19initialize_features
FN:146,_RNvMs1_NtNtCs64AwlgGXCHI_10valknut_rs9detectors9structureNtB5_18StructureExtractor24generate_recommendations
FN:196,_RNvMs1_NtNtCs64AwlgGXCHI_10valknut_rs9detectors9structureNtB5_18StructureExtractor25generate_file_split_packs
FN:178,_RNvMs1_NtNtCs64AwlgGXCHI_10valknut_rs9detectors9structureNtB5_18StructureExtractor27generate_branch_reorg_packs
FN:56,_RNvXs_NtNtCs64AwlgGXCHI_10valknut_rs9detectors9structureNtB4_24StructureRecommendationsNtNtNtNtCs66KPHxksi63_4core4iter6traits7collect12IntoIterator9into_iter
FNDA:0,_RNvMNtNtCs64AwlgGXCHI_10valknut_rs9detectors9structureNtB2_24StructureRecommendations3len
FNDA:0,_RNvMNtNtCs64AwlgGXCHI_10valknut_rs9detectors9structureNtB2_24StructureRecommendations8is_empty
FNDA:0,_RNvMs1_NtNtCs64AwlgGXCHI_10valknut_rs9detectors9structureNtB5_18StructureExtractor17calculate_entropy
FNDA:0,_RNvMs1_NtNtCs64AwlgGXCHI_10valknut_rs9detectors9structureNtB5_18StructureExtractor22analyze_file_for_split
FNDA:0,_RNvMs1_NtNtCs64AwlgGXCHI_10valknut_rs9detectors9structureNtB5_18StructureExtractor26calculate_gini_coefficient
FNDA:0,_RNvMs1_NtNtCs64AwlgGXCHI_10valknut_rs9detectors9structureNtB5_18StructureExtractor27analyze_directory_for_reorg
FNDA:0,_RNvMs1_NtNtCs64AwlgGXCHI_10valknut_rs9detectors9structureNtB5_18StructureExtractor27calculate_directory_metrics
FNDA:0,_RNvMs1_NtNtCs64AwlgGXCHI_10valknut_rs9detectors9structureNtB5_18StructureExtractor35calculate_size_normalization_factor
FNDA:0,_RNvMs1_NtNtCs64AwlgGXCHI_10valknut_rs9detectors9structureNtB5_18StructureExtractor3new
FNDA:0,_RNvXs0_NtNtCs64AwlgGXCHI_10valknut_rs9detectors9structureNtB5_18StructureExtractorNtNtCs66KPHxksi63_4core7default7Default7default
FNDA:0,_RNvXs3_NtNtCs64AwlgGXCHI_10valknut_rs9detectors9structureNtB5_18StructureExtractorNtNtNtB9_4core10featureset16FeatureExtractor4name
FNDA:0,_RNvXs3_NtNtCs64AwlgGXCHI_10valknut_rs9detectors9structureNtB5_18StructureExtractorNtNtNtB9_4core10featureset16FeatureExtractor7extract
FNDA:0,_RNvXs3_NtNtCs64AwlgGXCHI_10valknut_rs9detectors9structureNtB5_18StructureExtractorNtNtNtB9_4core10featureset16FeatureExtractor8features
FNDA:0,_RNCNCNvMs1_NtNtCs64AwlgGXCHI_10valknut_rs9detectors9structureNtB9_18StructureExtractor24generate_recommendations00Bd_
FNDA:0,_RNCNCNvMs1_NtNtCs64AwlgGXCHI_10valknut_rs9detectors9structureNtB9_18StructureExtractor24generate_recommendations0s_0Bd_
FNDA:0,_RNCNCNvMs1_NtNtCs64AwlgGXCHI_10valknut_rs9detectors9structureNtB9_18StructureExtractor25generate_file_split_packs00Bd_
FNDA:0,_RNCNCNvMs1_NtNtCs64AwlgGXCHI_10valknut_rs9detectors9structureNtB9_18StructureExtractor27generate_branch_reorg_packs00Bd_
FNDA:4,_RNCNvMs1_NtNtCs64AwlgGXCHI_10valknut_rs9detectors9structureNtB7_18StructureExtractor24generate_recommendations0Bb_
FNDA:4,_RNCNvMs1_NtNtCs64AwlgGXCHI_10valknut_rs9detectors9structureNtB7_18StructureExtractor25generate_file_split_packs0Bb_
FNDA:4,_RNCNvMs1_NtNtCs64AwlgGXCHI_10valknut_rs9detectors9structureNtB7_18StructureExtractor27generate_branch_reorg_packs0Bb_
FNDA:23,_RNvMs1_NtNtCs64AwlgGXCHI_10valknut_rs9detectors9structureNtB5_18StructureExtractor11with_config
FNDA:23,_RNvMs1_NtNtCs64AwlgGXCHI_10valknut_rs9detectors9structureNtB5_18StructureExtractor19initialize_features
FNDA:4,_RNvMs1_NtNtCs64AwlgGXCHI_10valknut_rs9detectors9structureNtB5_18StructureExtractor24generate_recommendations
FNDA:4,_RNvMs1_NtNtCs64AwlgGXCHI_10valknut_rs9detectors9structureNtB5_18StructureExtractor25generate_file_split_packs
FNDA:4,_RNvMs1_NtNtCs64AwlgGXCHI_10valknut_rs9detectors9structureNtB5_18StructureExtractor27generate_branch_reorg_packs
FNDA:4,_RNvXs_NtNtCs64AwlgGXCHI_10valknut_rs9detectors9structureNtB4_24StructureRecommendationsNtNtNtNtCs66KPHxksi63_4core4iter6traits7collect12IntoIterator9into_iter
FNF:26
FNH:9
DA:42,0
DA:43,0
DA:44,0
DA:47,0
DA:48,0
DA:49,0
DA:56,4
DA:57,4
DA:60,4
DA:61,0
DA:62,0
DA:63,0
DA:67,4
DA:68,0
DA:69,0
DA:70,0
DA:73,4
DA:74,4
DA:86,0
DA:87,0
DA:88,0
DA:92,0
DA:93,0
DA:94,0
DA:95,0
DA:97,23
DA:98,23
DA:99,23
DA:101,23
DA:102,23
DA:103,23
DA:104,23
DA:105,23
DA:106,23
DA:108,23
DA:109,23
DA:110,23
DA:112,23
DA:113,23
DA:114,23
DA:118,23
DA:122,23
DA:126,23
DA:130,23
DA:134,23
DA:138,23
DA:143,23
DA:146,4
DA:148,4
DA:149,4
DA:150,4
DA:153,4
DA:154,4
DA:157,4
DA:158,0
DA:159,0
DA:160,0
DA:161,0
DA:162,4
DA:164,4
DA:165,0
DA:166,0
DA:167,0
DA:168,0
DA:169,4
DA:171,4
DA:172,4
DA:173,4
DA:174,4
DA:175,4
DA:178,4
DA:179,4
DA:180,0
DA:181,4
DA:183,4
DA:185,4
DA:186,4
DA:187,4
DA:188,0
DA:189,0
DA:190,4
DA:192,4
DA:193,4
DA:196,4
DA:197,4
DA:198,0
DA:199,4
DA:201,4
DA:203,4
DA:204,4
DA:205,4
DA:206,0
DA:207,0
DA:208,4
DA:210,4
DA:211,4
DA:214,0
DA:215,0
DA:216,0
DA:219,0
DA:220,0
DA:221,0
DA:224,0
DA:225,0
DA:226,0
DA:229,0
DA:230,0
DA:231,0
DA:234,0
DA:235,0
DA:236,0
DA:239,0
DA:240,0
DA:241,0
DA:246,0
DA:247,0
DA:248,0
DA:250,0
DA:251,0
DA:252,0
DA:254,0
DA:294,0
BRF:0
BRH:0
LF:129
LH:66
end_of_record
SF:/home/nathan/Projects/valknut/src/io/cache.rs
FN:7,_RNvMNtNtCs64AwlgGXCHI_10valknut_rs2io5cacheNtB2_5Cache3new
FN:17,_RNvNtNtNtCs64AwlgGXCHI_10valknut_rs2io5cache5testss_14test_cache_new
FN:31,_RNvNtNtNtCs64AwlgGXCHI_10valknut_rs2io5cache5testss_16test_cache_debug
FN:24,_RNvNtNtNtCs64AwlgGXCHI_10valknut_rs2io5cache5testss_18test_cache_default
FNDA:2,_RNvMNtNtCs64AwlgGXCHI_10valknut_rs2io5cacheNtB2_5Cache3new
FNDA:1,_RNvNtNtNtCs64AwlgGXCHI_10valknut_rs2io5cache5testss_14test_cache_new
FNDA:1,_RNvNtNtNtCs64AwlgGXCHI_10valknut_rs2io5cache5testss_16test_cache_debug
FNDA:1,_RNvNtNtNtCs64AwlgGXCHI_10valknut_rs2io5cache5testss_18test_cache_default
FNF:4
FNH:4
DA:7,2
DA:8,2
DA:9,2
DA:17,1
DA:18,1
DA:20,1
DA:21,1
DA:24,1
DA:25,1
DA:27,1
DA:28,1
DA:31,1
DA:32,1
DA:33,1
DA:34,1
DA:35,1
BRF:0
BRH:0
LF:16
LH:16
end_of_record
SF:/home/nathan/Projects/valknut/src/io/reports.rs
FN:180,_RNvMs_NtNtCs64AwlgGXCHI_10valknut_rs2io7reportsNtB4_15ReportGenerator17calculate_summary
FN:161,_RNvMs_NtNtCs64AwlgGXCHI_10valknut_rs2io7reportsNtB4_15ReportGenerator21prepare_template_data
FN:56,_RNvMs_NtNtCs64AwlgGXCHI_10valknut_rs2io7reportsNtB4_15ReportGenerator3new
FN:32,_RNvXNtNtCs64AwlgGXCHI_10valknut_rs2io7reportsNtB2_15ReportGeneratorNtNtCs66KPHxksi63_4core7default7Default7default
FN:95,_RINvMs_NtNtCs64AwlgGXCHI_10valknut_rs2io7reportsNtB5_15ReportGenerator15generate_reportRNtNtCsiKSG5X70Gj7_3std4path7PathBufEB9_
FN:60,_RINvMs_NtNtCs64AwlgGXCHI_10valknut_rs2io7reportsNtB5_15ReportGenerator18with_templates_dirRNtNtCsiKSG5X70Gj7_3std4path7PathBufEB9_
FN:150,_RINvMs_NtNtCs64AwlgGXCHI_10valknut_rs2io7reportsNtB5_15ReportGenerator19generate_csv_reportRNtNtCsiKSG5X70Gj7_3std4path7PathBufEB9_
FN:109,_RINvMs_NtNtCs64AwlgGXCHI_10valknut_rs2io7reportsNtB5_15ReportGenerator20generate_html_reportRNtNtCsiKSG5X70Gj7_3std4path7PathBufEB9_
FN:129,_RINvMs_NtNtCs64AwlgGXCHI_10valknut_rs2io7reportsNtB5_15ReportGenerator20generate_json_reportRNtNtCsiKSG5X70Gj7_3std4path7PathBufEB9_
FN:139,_RINvMs_NtNtCs64AwlgGXCHI_10valknut_rs2io7reportsNtB5_15ReportGenerator20generate_yaml_reportRNtNtCsiKSG5X70Gj7_3std4path7PathBufEB9_
FN:72,_RINvMs_NtNtCs64AwlgGXCHI_10valknut_rs2io7reportsNtB5_15ReportGenerator23load_templates_from_dirRNtNtCsiKSG5X70Gj7_3std4path7PathBufEB9_
FN:145,_RNCINvMs_NtNtCs64AwlgGXCHI_10valknut_rs2io7reportsNtB7_15ReportGenerator20generate_yaml_reportRNtNtCsiKSG5X70Gj7_3std4path7PathBufE0Bb_
FN:79,_RNCINvMs_NtNtCs64AwlgGXCHI_10valknut_rs2io7reportsNtB7_15ReportGenerator23load_templates_from_dirRNtNtCsiKSG5X70Gj7_3std4path7PathBufE0Bb_
FN:82,_RNCINvMs_NtNtCs64AwlgGXCHI_10valknut_rs2io7reportsNtB7_15ReportGenerator23load_templates_from_dirRNtNtCsiKSG5X70Gj7_3std4path7PathBufEs0_0Bb_
FN:81,_RNCINvMs_NtNtCs64AwlgGXCHI_10valknut_rs2io7reportsNtB7_15ReportGenerator23load_templates_from_dirRNtNtCsiKSG5X70Gj7_3std4path7PathBufEs_0Bb_
FN:37,_RNCNCNvXNtNtCs64AwlgGXCHI_10valknut_rs2io7reportsNtB6_15ReportGeneratorNtNtCs66KPHxksi63_4core7default7Default7default00Ba_
FN:38,_RNCNCNvXNtNtCs64AwlgGXCHI_10valknut_rs2io7reportsNtB6_15ReportGeneratorNtNtCs66KPHxksi63_4core7default7Default7default0s0_0Ba_
FN:37,_RNCNCNvXNtNtCs64AwlgGXCHI_10valknut_rs2io7reportsNtB6_15ReportGeneratorNtNtCs66KPHxksi63_4core7default7Default7default0s_0Ba_
FN:36,_RNCNvXNtNtCs64AwlgGXCHI_10valknut_rs2io7reportsNtB4_15ReportGeneratorNtNtCs66KPHxksi63_4core7default7Default7default0B8_
FN:435,_RNvNtNtNtCs64AwlgGXCHI_10valknut_rs2io7reports5tests19create_test_results
FN:678,_RNvNtNtNtCs64AwlgGXCHI_10valknut_rs2io7reports5testss_22test_calculate_summary
FN:698,_RNvNtNtNtCs64AwlgGXCHI_10valknut_rs2io7reports5testss_23test_report_error_debug
FN:587,_RNvNtNtNtCs64AwlgGXCHI_10valknut_rs2io7reports5testss_24test_generate_csv_report
FN:554,_RNvNtNtNtCs64AwlgGXCHI_10valknut_rs2io7reports5testss_25test_generate_json_report
FN:571,_RNvNtNtNtCs64AwlgGXCHI_10valknut_rs2io7reports5testss_25test_generate_yaml_report
FN:689,_RNvNtNtNtCs64AwlgGXCHI_10valknut_rs2io7reports5testss_25test_report_error_display
FN:501,_RNvNtNtNtCs64AwlgGXCHI_10valknut_rs2io7reports5testss_25test_report_generator_new
FN:659,_RNvNtNtNtCs64AwlgGXCHI_10valknut_rs2io7reports5testss_26test_prepare_template_data
FN:515,_RNvNtNtNtCs64AwlgGXCHI_10valknut_rs2io7reports5testss_27test_report_generator_debug
FN:508,_RNvNtNtNtCs64AwlgGXCHI_10valknut_rs2io7reports5testss_29test_report_generator_default
FN:536,_RNvNtNtNtCs64AwlgGXCHI_10valknut_rs2io7reports5testss_32test_with_templates_dir_existing
FN:524,_RNvNtNtNtCs64AwlgGXCHI_10valknut_rs2io7reports5testss_35test_with_templates_dir_nonexistent
FN:623,_RNvNtNtNtCs64AwlgGXCHI_10valknut_rs2io7reports5testss_41test_generate_html_report_custom_template
FN:602,_RNvNtNtNtCs64AwlgGXCHI_10valknut_rs2io7reports5testss_42test_generate_html_report_default_template
FN:738,_RNvNtNtNtCs64AwlgGXCHI_10valknut_rs2io7reports5testss_42test_load_templates_from_dir_non_hbs_files
FN:708,_RNvNtNtNtCs64AwlgGXCHI_10valknut_rs2io7reports5testss_45test_load_templates_from_dir_invalid_filename
FNDA:4,_RNvMs_NtNtCs64AwlgGXCHI_10valknut_rs2io7reportsNtB4_15ReportGenerator17calculate_summary
FNDA:3,_RNvMs_NtNtCs64AwlgGXCHI_10valknut_rs2io7reportsNtB4_15ReportGenerator21prepare_template_data
FNDA:13,_RNvMs_NtNtCs64AwlgGXCHI_10valknut_rs2io7reportsNtB4_15ReportGenerator3new
FNDA:14,_RNvXNtNtCs64AwlgGXCHI_10valknut_rs2io7reportsNtB2_15ReportGeneratorNtNtCs66KPHxksi63_4core7default7Default7default
FNDA:5,_RINvMs_NtNtCs64AwlgGXCHI_10valknut_rs2io7reportsNtB5_15ReportGenerator15generate_reportRNtNtCsiKSG5X70Gj7_3std4path7PathBufEB9_
FNDA:3,_RINvMs_NtNtCs64AwlgGXCHI_10valknut_rs2io7reportsNtB5_15ReportGenerator18with_templates_dirRNtNtCsiKSG5X70Gj7_3std4path7PathBufEB9_
FNDA:1,_RINvMs_NtNtCs64AwlgGXCHI_10valknut_rs2io7reportsNtB5_15ReportGenerator19generate_csv_reportRNtNtCsiKSG5X70Gj7_3std4path7PathBufEB9_
FNDA:2,_RINvMs_NtNtCs64AwlgGXCHI_10valknut_rs2io7reportsNtB5_15ReportGenerator20generate_html_reportRNtNtCsiKSG5X70Gj7_3std4path7PathBufEB9_
FNDA:1,_RINvMs_NtNtCs64AwlgGXCHI_10valknut_rs2io7reportsNtB5_15ReportGenerator20generate_json_reportRNtNtCsiKSG5X70Gj7_3std4path7PathBufEB9_
FNDA:1,_RINvMs_NtNtCs64AwlgGXCHI_10valknut_rs2io7reportsNtB5_15ReportGenerator20generate_yaml_reportRNtNtCsiKSG5X70Gj7_3std4path7PathBufEB9_
FNDA:4,_RINvMs_NtNtCs64AwlgGXCHI_10valknut_rs2io7reportsNtB5_15ReportGenerator23load_templates_from_dirRNtNtCsiKSG5X70Gj7_3std4path7PathBufEB9_
FNDA:0,_RNCINvMs_NtNtCs64AwlgGXCHI_10valknut_rs2io7reportsNtB7_15ReportGenerator20generate_yaml_reportRNtNtCsiKSG5X70Gj7_3std4path7PathBufE0Bb_
FNDA:5,_RNCINvMs_NtNtCs64AwlgGXCHI_10valknut_rs2io7reportsNtB7_15ReportGenerator23load_templates_from_dirRNtNtCsiKSG5X70Gj7_3std4path7PathBufE0Bb_
FNDA:0,_RNCINvMs_NtNtCs64AwlgGXCHI_10valknut_rs2io7reportsNtB7_15ReportGenerator23load_templates_from_dirRNtNtCsiKSG5X70Gj7_3std4path7PathBufEs0_0Bb_
FNDA:3,_RNCINvMs_NtNtCs64AwlgGXCHI_10valknut_rs2io7reportsNtB7_15ReportGenerator23load_templates_from_dirRNtNtCsiKSG5X70Gj7_3std4path7PathBufEs_0Bb_
FNDA:1,_RNCNCNvXNtNtCs64AwlgGXCHI_10valknut_rs2io7reportsNtB6_15ReportGeneratorNtNtCs66KPHxksi63_4core7default7Default7default00Ba_
FNDA:0,_RNCNCNvXNtNtCs64AwlgGXCHI_10valknut_rs2io7reportsNtB6_15ReportGeneratorNtNtCs66KPHxksi63_4core7default7Default7default0s0_0Ba_
FNDA:0,_RNCNCNvXNtNtCs64AwlgGXCHI_10valknut_rs2io7reportsNtB6_15ReportGeneratorNtNtCs66KPHxksi63_4core7default7Default7default0s_0Ba_
FNDA:1,_RNCNvXNtNtCs64AwlgGXCHI_10valknut_rs2io7reportsNtB4_15ReportGeneratorNtNtCs66KPHxksi63_4core7default7Default7default0B8_
FNDA:7,_RNvNtNtNtCs64AwlgGXCHI_10valknut_rs2io7reports5tests19create_test_results
FNDA:1,_RNvNtNtNtCs64AwlgGXCHI_10valknut_rs2io7reports5testss_22test_calculate_summary
FNDA:1,_RNvNtNtNtCs64AwlgGXCHI_10valknut_rs2io7reports5testss_23test_report_error_debug
FNDA:1,_RNvNtNtNtCs64AwlgGXCHI_10valknut_rs2io7reports5testss_24test_generate_csv_report
FNDA:1,_RNvNtNtNtCs64AwlgGXCHI_10valknut_rs2io7reports5testss_25test_generate_json_report
FNDA:1,_RNvNtNtNtCs64AwlgGXCHI_10valknut_rs2io7reports5testss_25test_generate_yaml_report
FNDA:1,_RNvNtNtNtCs64AwlgGXCHI_10valknut_rs2io7reports5testss_25test_report_error_display
FNDA:1,_RNvNtNtNtCs64AwlgGXCHI_10valknut_rs2io7reports5testss_25test_report_generator_new
FNDA:1,_RNvNtNtNtCs64AwlgGXCHI_10valknut_rs2io7reports5testss_26test_prepare_template_data
FNDA:1,_RNvNtNtNtCs64AwlgGXCHI_10valknut_rs2io7reports5testss_27test_report_generator_debug
FNDA:1,_RNvNtNtNtCs64AwlgGXCHI_10valknut_rs2io7reports5testss_29test_report_generator_default
FNDA:1,_RNvNtNtNtCs64AwlgGXCHI_10valknut_rs2io7reports5testss_32test_with_templates_dir_existing
FNDA:1,_RNvNtNtNtCs64AwlgGXCHI_10valknut_rs2io7reports5testss_35test_with_templates_dir_nonexistent
FNDA:1,_RNvNtNtNtCs64AwlgGXCHI_10valknut_rs2io7reports5testss_41test_generate_html_report_custom_template
FNDA:1,_RNvNtNtNtCs64AwlgGXCHI_10valknut_rs2io7reports5testss_42test_generate_html_report_default_template
FNDA:1,_RNvNtNtNtCs64AwlgGXCHI_10valknut_rs2io7reports5testss_42test_load_templates_from_dir_non_hbs_files
FNDA:1,_RNvNtNtNtCs64AwlgGXCHI_10valknut_rs2io7reports5testss_45test_load_templates_from_dir_invalid_filename
FNF:36
FNH:32
DA:32,14
DA:33,14
DA:36,14
DA:37,1
DA:38,1
DA:39,1
DA:40,1
DA:41,1
DA:44,14
DA:45,0
DA:46,14
DA:48,14
DA:49,14
DA:50,14
DA:51,14
DA:52,14
DA:56,13
DA:57,13
DA:58,13
DA:60,3
DA:61,3
DA:63,3
DA:65,2
DA:66,1
DA:68,3
DA:69,3
DA:70,3
DA:72,4
DA:73,4
DA:75,5
DA:76,5
DA:77,5
DA:79,5
DA:80,3
DA:81,3
DA:82,3
DA:83,0
DA:85,0
DA:87,3
DA:88,3
DA:89,2
DA:92,4
DA:93,4
DA:95,5
DA:96,5
DA:97,5
DA:98,5
DA:99,5
DA:100,5
DA:101,5
DA:102,2
DA:103,1
DA:104,1
DA:105,1
DA:107,5
DA:109,2
DA:110,2
DA:111,2
DA:112,2
DA:113,2
DA:114,2
DA:117,2
DA:118,1
DA:120,1
DA:123,2
DA:124,2
DA:126,2
DA:127,2
DA:129,1
DA:130,1
DA:131,1
DA:132,1
DA:133,1
DA:134,1
DA:135,1
DA:136,1
DA:137,1
DA:139,1
DA:140,1
DA:141,1
DA:142,1
DA:143,1
DA:144,1
DA:145,1
DA:146,1
DA:147,1
DA:148,1
DA:150,1
DA:151,1
DA:152,1
DA:153,1
DA:154,1
DA:157,1
DA:158,1
DA:159,1
DA:161,3
DA:162,3
DA:165,3
DA:166,3
DA:167,3
DA:170,3
DA:173,3
DA:174,3
DA:175,3
DA:177,3
DA:178,3
DA:180,4
DA:181,4
DA:184,4
DA:185,4
DA:187,4
DA:188,4
DA:435,7
DA:438,7
DA:439,7
DA:440,7
DA:441,7
DA:442,7
DA:443,7
DA:444,7
DA:445,7
DA:446,7
DA:447,7
DA:448,7
DA:449,7
DA:450,7
DA:451,7
DA:452,7
DA:453,7
DA:454,7
DA:455,7
DA:456,7
DA:457,7
DA:458,7
DA:459,7
DA:460,7
DA:461,7
DA:462,7
DA:463,7
DA:464,7
DA:465,7
DA:466,7
DA:467,7
DA:468,7
DA:469,7
DA:470,7
DA:471,7
DA:472,7
DA:473,7
DA:474,7
DA:475,7
DA:476,7
DA:477,7
DA:478,7
DA:479,7
DA:480,7
DA:481,7
DA:482,7
DA:483,7
DA:484,7
DA:485,7
DA:486,7
DA:487,7
DA:488,7
DA:489,7
DA:490,7
DA:491,7
DA:492,7
DA:493,7
DA:494,7
DA:495,7
DA:496,7
DA:497,7
DA:498,7
DA:501,1
DA:502,1
DA:503,1
DA:504,1
DA:505,1
DA:508,1
DA:509,1
DA:510,1
DA:511,1
DA:512,1
DA:515,1
DA:516,1
DA:517,1
DA:518,1
DA:519,1
DA:520,1
DA:521,1
DA:524,1
DA:525,1
DA:526,1
DA:528,1
DA:529,1
DA:530,1
DA:532,1
DA:533,1
DA:536,1
DA:537,1
DA:538,1
DA:539,1
DA:542,1
DA:543,1
DA:545,1
DA:546,1
DA:547,1
DA:549,1
DA:550,1
DA:551,1
DA:554,1
DA:555,1
DA:556,1
DA:558,1
DA:559,1
DA:561,1
DA:562,1
DA:564,1
DA:565,1
DA:566,1
DA:567,1
DA:568,1
DA:571,1
DA:572,1
DA:573,1
DA:575,1
DA:576,1
DA:578,1
DA:579,1
DA:581,1
DA:582,1
DA:583,1
DA:584,1
DA:587,1
DA:588,1
DA:589,1
DA:591,1
DA:592,1
DA:594,1
DA:595,1
DA:597,1
DA:598,1
DA:599,1
DA:602,1
DA:603,1
DA:604,1
DA:606,1
DA:607,1
DA:609,1
DA:610,1
DA:611,0
DA:612,1
DA:613,1
DA:615,1
DA:616,1
DA:617,1
DA:618,1
DA:619,1
DA:620,1
DA:623,1
DA:624,1
DA:625,1
DA:626,1
DA:629,1
DA:630,1
DA:631,1
DA:632,1
DA:633,1
DA:634,1
DA:635,1
DA:636,1
DA:637,1
DA:638,1
DA:640,1
DA:641,1
DA:643,1
DA:644,1
DA:645,1
DA:647,1
DA:648,1
DA:650,1
DA:651,1
DA:653,1
DA:654,1
DA:655,1
DA:656,1
DA:659,1
DA:660,1
DA:661,1
DA:663,1
DA:665,1
DA:666,1
DA:668,1
DA:669,1
DA:670,1
DA:671,1
DA:672,1
DA:674,1
DA:675,1
DA:678,1
DA:679,1
DA:680,1
DA:682,1
DA:684,1
DA:685,1
DA:686,1
DA:689,1
DA:690,1
DA:691,1
DA:693,1
DA:694,1
DA:695,1
DA:698,1
DA:699,1
DA:700,1
DA:702,1
DA:703,1
DA:704,1
DA:705,1
DA:708,1
DA:709,1
DA:710,1
DA:711,1
DA:715,1
DA:716,1
DA:717,0
DA:718,0
DA:719,0
DA:720,0
DA:721,0
DA:722,0
DA:723,0
DA:727,1
DA:728,1
DA:730,1
DA:731,1
DA:732,1
DA:735,1
DA:738,1
DA:739,1
DA:740,1
DA:741,1
DA:744,1
DA:745,1
DA:747,1
DA:748,1
DA:750,1
DA:751,1
DA:754,1
DA:755,1
BRF:0
BRH:0
LF:359
LH:344
end_of_record
SF:/home/nathan/Projects/valknut/src/lang/common.rs
FN:148,_RNvNtNtNtCs64AwlgGXCHI_10valknut_rs4lang6common5testss_18test_parsed_entity
FN:177,_RNvNtNtNtCs64AwlgGXCHI_10valknut_rs4lang6common5testss_20test_parse_index_new
FN:131,_RNvNtNtNtCs64AwlgGXCHI_10valknut_rs4lang6common5testss_20test_source_location
FN:185,_RNvNtNtNtCs64AwlgGXCHI_10valknut_rs4lang6common5testss_24test_parse_index_default
FN:117,_RNvNtNtNtCs64AwlgGXCHI_10valknut_rs4lang6common5testss_25test_entity_kind_variants
FN:193,_RNvNtNtNtCs64AwlgGXCHI_10valknut_rs4lang6common5testss_27test_parse_index_add_entity
FN:224,_RNvNtNtNtCs64AwlgGXCHI_10valknut_rs4lang6common5testss_27test_parse_index_get_entity
FN:257,_RNvNtNtNtCs64AwlgGXCHI_10valknut_rs4lang6common5testss_37test_parse_index_get_entities_in_file
FN:83,_RNvMNtNtCs64AwlgGXCHI_10valknut_rs4lang6commonNtB2_10ParseIndex10add_entity
FN:98,_RNvMNtNtCs64AwlgGXCHI_10valknut_rs4lang6commonNtB2_10ParseIndex10get_entity
FN:103,_RNvMNtNtCs64AwlgGXCHI_10valknut_rs4lang6commonNtB2_10ParseIndex20get_entities_in_file
FN:78,_RNvMNtNtCs64AwlgGXCHI_10valknut_rs4lang6commonNtB2_10ParseIndex3new
FN:106,_RNCNCNvMNtNtCs64AwlgGXCHI_10valknut_rs4lang6commonNtB6_10ParseIndex20get_entities_in_file00Ba_
FN:106,_RNCNvMNtNtCs64AwlgGXCHI_10valknut_rs4lang6commonNtB4_10ParseIndex20get_entities_in_file0B8_
FNDA:1,_RNvNtNtNtCs64AwlgGXCHI_10valknut_rs4lang6common5testss_18test_parsed_entity
FNDA:1,_RNvNtNtNtCs64AwlgGXCHI_10valknut_rs4lang6common5testss_20test_parse_index_new
FNDA:1,_RNvNtNtNtCs64AwlgGXCHI_10valknut_rs4lang6common5testss_20test_source_location
FNDA:1,_RNvNtNtNtCs64AwlgGXCHI_10valknut_rs4lang6common5testss_24test_parse_index_default
FNDA:1,_RNvNtNtNtCs64AwlgGXCHI_10valknut_rs4lang6common5testss_25test_entity_kind_variants
FNDA:1,_RNvNtNtNtCs64AwlgGXCHI_10valknut_rs4lang6common5testss_27test_parse_index_add_entity
FNDA:1,_RNvNtNtNtCs64AwlgGXCHI_10valknut_rs4lang6common5testss_27test_parse_index_get_entity
FNDA:1,_RNvNtNtNtCs64AwlgGXCHI_10valknut_rs4lang6common5testss_37test_parse_index_get_entities_in_file
FNDA:4,_RNvMNtNtCs64AwlgGXCHI_10valknut_rs4lang6commonNtB2_10ParseIndex10add_entity
FNDA:2,_RNvMNtNtCs64AwlgGXCHI_10valknut_rs4lang6commonNtB2_10ParseIndex10get_entity
FNDA:2,_RNvMNtNtCs64AwlgGXCHI_10valknut_rs4lang6commonNtB2_10ParseIndex20get_entities_in_file
FNDA:4,_RNvMNtNtCs64AwlgGXCHI_10valknut_rs4lang6commonNtB2_10ParseIndex3new
FNDA:2,_RNCNCNvMNtNtCs64AwlgGXCHI_10valknut_rs4lang6commonNtB6_10ParseIndex20get_entities_in_file00Ba_
FNDA:1,_RNCNvMNtNtCs64AwlgGXCHI_10valknut_rs4lang6commonNtB4_10ParseIndex20get_entities_in_file0B8_
FNF:14
FNH:14
DA:78,4
DA:79,4
DA:80,4
DA:83,4
DA:84,4
DA:85,4
DA:88,4
DA:89,4
DA:90,4
DA:91,4
DA:94,4
DA:95,4
DA:98,2
DA:99,2
DA:100,2
DA:103,2
DA:104,2
DA:105,2
DA:106,2
DA:107,2
DA:108,2
DA:117,1
DA:119,1
DA:120,1
DA:121,1
DA:122,1
DA:123,1
DA:124,1
DA:125,1
DA:126,1
DA:127,1
DA:128,1
DA:131,1
DA:132,1
DA:133,1
DA:134,1
DA:135,1
DA:136,1
DA:137,1
DA:138,1
DA:140,1
DA:141,1
DA:142,1
DA:143,1
DA:144,1
DA:145,1
DA:148,1
DA:149,1
DA:150,1
DA:151,1
DA:152,1
DA:153,1
DA:154,1
DA:155,1
DA:157,1
DA:158,1
DA:159,1
DA:160,1
DA:161,1
DA:162,1
DA:163,1
DA:164,1
DA:165,1
DA:167,1
DA:168,1
DA:169,1
DA:170,1
DA:171,1
DA:172,1
DA:173,1
DA:174,1
DA:177,1
DA:178,1
DA:179,1
DA:180,1
DA:181,1
DA:182,1
DA:185,1
DA:186,1
DA:187,1
DA:188,1
DA:189,1
DA:190,1
DA:193,1
DA:194,1
DA:196,1
DA:197,1
DA:198,1
DA:199,1
DA:200,1
DA:201,1
DA:202,1
DA:204,1
DA:205,1
DA:206,1
DA:207,1
DA:208,1
DA:209,1
DA:210,1
DA:211,1
DA:212,1
DA:214,1
DA:216,1
DA:217,1
DA:218,1
DA:219,1
DA:220,1
DA:221,1
DA:224,1
DA:225,1
DA:227,1
DA:228,1
DA:229,1
DA:230,1
DA:231,1
DA:232,1
DA:233,1
DA:235,1
DA:236,1
DA:237,1
DA:238,1
DA:239,1
DA:240,1
DA:241,1
DA:242,1
DA:243,1
DA:245,1
DA:247,1
DA:248,1
DA:249,1
DA:250,1
DA:252,1
DA:253,1
DA:254,1
DA:257,1
DA:258,1
DA:260,1
DA:261,1
DA:262,1
DA:263,1
DA:264,1
DA:265,1
DA:266,1
DA:268,1
DA:269,1
DA:270,1
DA:271,1
DA:272,1
DA:273,1
DA:274,1
DA:276,1
DA:277,1
DA:278,1
DA:279,1
DA:280,1
DA:281,1
DA:282,1
DA:283,1
DA:284,1
DA:286,1
DA:287,1
DA:288,1
DA:289,1
DA:290,1
DA:291,1
DA:292,1
DA:293,1
DA:294,1
DA:296,1
DA:297,1
DA:299,1
DA:300,1
DA:302,1
DA:303,1
DA:304,1
BRF:0
BRH:0
LF:177
LH:177
end_of_record
SF:/home/nathan/Projects/valknut/src/lang/python_simple.rs
FN:25,_RNCNvMNtNtCs64AwlgGXCHI_10valknut_rs4lang13python_simpleNtB4_19SimplePythonAdapter21extract_code_entities0B8_
FN:46,_RNCNvMNtNtCs64AwlgGXCHI_10valknut_rs4lang13python_simpleNtB4_19SimplePythonAdapter21extract_code_entitiess_0B8_
FN:75,_RNvXs_NtNtCs64AwlgGXCHI_10valknut_rs4lang13python_simpleNtB4_19SimplePythonAdapterNtNtCs66KPHxksi63_4core7default7Default7default
FN:130,_RNCNvNtNtNtCs64AwlgGXCHI_10valknut_rs4lang13python_simple5testss_25test_simple_class_parsing0B9_
FN:131,_RNCNvNtNtNtCs64AwlgGXCHI_10valknut_rs4lang13python_simple5testss_25test_simple_class_parsings_0B9_
FN:16,_RNvMNtNtCs64AwlgGXCHI_10valknut_rs4lang13python_simpleNtB2_19SimplePythonAdapter21extract_code_entities
FN:11,_RNvMNtNtCs64AwlgGXCHI_10valknut_rs4lang13python_simpleNtB2_19SimplePythonAdapter3new
FN:113,_RNvNtNtNtCs64AwlgGXCHI_10valknut_rs4lang13python_simple5testss_25test_simple_class_parsing
FN:91,_RNvNtNtNtCs64AwlgGXCHI_10valknut_rs4lang13python_simple5testss_28test_simple_function_parsing
FN:85,_RNvNtNtNtCs64AwlgGXCHI_10valknut_rs4lang13python_simple5testss_35test_simple_python_adapter_creation
FNDA:3,_RNCNvMNtNtCs64AwlgGXCHI_10valknut_rs4lang13python_simpleNtB4_19SimplePythonAdapter21extract_code_entities0B8_
FNDA:2,_RNCNvMNtNtCs64AwlgGXCHI_10valknut_rs4lang13python_simpleNtB4_19SimplePythonAdapter21extract_code_entitiess_0B8_
FNDA:0,_RNvXs_NtNtCs64AwlgGXCHI_10valknut_rs4lang13python_simpleNtB4_19SimplePythonAdapterNtNtCs66KPHxksi63_4core7default7Default7default
FNDA:4,_RNCNvNtNtNtCs64AwlgGXCHI_10valknut_rs4lang13python_simple5testss_25test_simple_class_parsing0B9_
FNDA:4,_RNCNvNtNtNtCs64AwlgGXCHI_10valknut_rs4lang13python_simple5testss_25test_simple_class_parsings_0B9_
FNDA:2,_RNvMNtNtCs64AwlgGXCHI_10valknut_rs4lang13python_simpleNtB2_19SimplePythonAdapter21extract_code_entities
FNDA:3,_RNvMNtNtCs64AwlgGXCHI_10valknut_rs4lang13python_simpleNtB2_19SimplePythonAdapter3new
FNDA:1,_RNvNtNtNtCs64AwlgGXCHI_10valknut_rs4lang13python_simple5testss_25test_simple_class_parsing
FNDA:1,_RNvNtNtNtCs64AwlgGXCHI_10valknut_rs4lang13python_simple5testss_28test_simple_function_parsing
FNDA:1,_RNvNtNtNtCs64AwlgGXCHI_10valknut_rs4lang13python_simple5testss_35test_simple_python_adapter_creation
FNF:10
FNH:9
DA:11,3
DA:12,3
DA:13,3
DA:16,2
DA:17,2
DA:18,2
DA:20,14
DA:21,14
DA:24,14
DA:25,3
DA:26,3
DA:27,3
DA:28,3
DA:29,3
DA:30,3
DA:31,3
DA:32,3
DA:33,3
DA:34,3
DA:35,3
DA:36,3
DA:37,3
DA:38,3
DA:39,3
DA:40,3
DA:41,0
DA:42,11
DA:45,14
DA:46,2
DA:47,2
DA:48,1
DA:50,1
DA:53,2
DA:55,2
DA:56,2
DA:57,2
DA:58,2
DA:59,2
DA:61,2
DA:62,2
DA:64,2
DA:65,2
DA:66,0
DA:67,12
DA:70,2
DA:71,2
DA:75,0
DA:76,0
DA:77,0
DA:85,1
DA:86,1
DA:87,1
DA:88,1
DA:91,1
DA:92,1
DA:93,1
DA:94,1
DA:95,1
DA:96,1
DA:97,1
DA:99,1
DA:100,1
DA:102,1
DA:103,1
DA:104,1
DA:105,1
DA:108,1
DA:109,1
DA:110,1
DA:113,1
DA:114,1
DA:115,1
DA:116,1
DA:117,1
DA:118,1
DA:119,1
DA:120,1
DA:121,1
DA:122,1
DA:123,1
DA:124,1
DA:125,1
DA:127,1
DA:130,4
DA:131,4
DA:133,1
DA:134,1
DA:136,1
DA:137,1
DA:138,1
BRF:0
BRH:0
LF:94
LH:89
end_of_record
SF:/home/nathan/Projects/valknut/src/lib.rs
FN:160,_RNvNtCs64AwlgGXCHI_10valknut_rs8features12has_database
FN:155,_RNvNtCs64AwlgGXCHI_10valknut_rs8features12has_parallel
FN:150,_RNvNtCs64AwlgGXCHI_10valknut_rs8features8has_simd
FNDA:0,_RNvNtCs64AwlgGXCHI_10valknut_rs8features12has_database
FNDA:0,_RNvNtCs64AwlgGXCHI_10valknut_rs8features12has_parallel
FNDA:0,_RNvNtCs64AwlgGXCHI_10valknut_rs8features8has_simd
FNF:3
FNH:0
DA:150,0
DA:151,0
DA:152,0
DA:155,0
DA:156,0
DA:157,0
DA:160,0
DA:161,0
DA:162,0
BRF:0
BRH:0
LF:9
LH:0
end_of_record